
Discarded input sections

 .bss           0x0000000000000000        0x0 build/framebuffer.o
 .ARM.attributes
                0x0000000000000000       0x12 build/framebuffer.o
 .bss           0x0000000000000000        0x0 build/init.o
 .ARM.attributes
                0x0000000000000000       0x12 build/init.o
 .bss           0x0000000000000000        0x0 build/main.o
 .ARM.attributes
                0x0000000000000000       0x12 build/main.o
 .bss           0x0000000000000000        0x0 build/write_to_screen.o
 .ARM.attributes
                0x0000000000000000       0x14 build/write_to_screen.o

Memory Configuration

Name             Origin             Length             Attributes
*default*        0x0000000000000000 0xffffffffffffffff

Linker script and memory map

LOAD build/framebuffer.o
LOAD build/init.o
LOAD build/main.o
LOAD build/write_to_screen.o

.init           0x0000000000008000        0x4
 *(.init)
 .init          0x0000000000008000        0x4 build/init.o
                0x0000000000008000                _start

.text           0x0000000000008004     0x2390
 *(.text)
 .text          0x0000000000008004       0x90 build/framebuffer.o
                0x0000000000008004                setup_framebuffer
 .text          0x0000000000008094        0x0 build/init.o
 .text          0x0000000000008094      0x778 build/main.o
                0x0000000000008094                main
                0x00000000000080bc                find_1F_A
                0x00000000000083f4                find_1R_T
 .text          0x000000000000880c     0x1b88 build/write_to_screen.o
                0x000000000000880c                print_newline
                0x0000000000008864                print_A
                0x000000000000897c                print_B
                0x0000000000008adc                print_C
                0x0000000000008bf8                print_D
                0x0000000000008d34                print_E
                0x0000000000008e6c                print_F
                0x0000000000008f84                print_G
                0x00000000000090bc                print_H
                0x00000000000091d8                print_I
                0x00000000000092f4                print_K
                0x0000000000009434                print_L
                0x0000000000009530                print_M
                0x0000000000009654                print_N
                0x0000000000009774                print_P
                0x000000000000989c                print_Q
                0x00000000000099dc                print_R
                0x0000000000009b2c                print_S
                0x0000000000009c68                print_T
                0x0000000000009d68                print_V
                0x0000000000009e74                print_W
                0x0000000000009f9c                print_X
                0x000000000000a098                print_Y
                0x000000000000a184                print_stopF
                0x000000000000a28c                print_stopR

.data           0x000000000000b000      0x77a
 *(.data)
 .data          0x000000000000b000       0x28 build/framebuffer.o
                0x000000000000b000                FrameBufferQuestionnaire
 .data          0x000000000000b028        0x0 build/init.o
 .data          0x000000000000b028        0x0 build/main.o
 .data          0x000000000000b028      0x752 build/write_to_screen.o
                0x000000000000b028                X_offset_begin
                0x000000000000b02c                X_offset_end
                0x000000000000b030                X_offset_current
                0x000000000000b034                screen_begin
                0x000000000000b038                screen_end
                0x000000000000b03c                my_sequence

/DISCARD/
 *(*)
OUTPUT(build/output.elf elf32-littlearm)
