
build/output.elf:     file format elf32-littlearm


Disassembly of section .init:

00008000 <_start>:
    8000:	ea000023 	b	8094 <main>

Disassembly of section .text:

00008004 <setup_framebuffer>:
    8004:	e59f006c 	ldr	r0, [pc, #108]	; 8078 <check_read_status+0x58>

00008008 <check_write_status>:
    8008:	e5902018 	ldr	r2, [r0, #24]
    800c:	e3120102 	tst	r2, #-2147483648	; 0x80000000
    8010:	1afffffc 	bne	8008 <check_write_status>
    8014:	e59f1060 	ldr	r1, [pc, #96]	; 807c <check_read_status+0x5c>
    8018:	e2811105 	add	r1, r1, #1073741825	; 0x40000001
    801c:	e5801020 	str	r1, [r0, #32]

00008020 <check_read_status>:
    8020:	e5902018 	ldr	r2, [r0, #24]
    8024:	e3120101 	tst	r2, #1073741824	; 0x40000000
    8028:	1afffffc 	bne	8020 <check_read_status>
    802c:	e3a02baf 	mov	r2, #179200	; 0x2bc00
    8030:	e3a0300a 	mov	r3, #10
    8034:	e0020293 	mul	r2, r3, r2
    8038:	e59f003c 	ldr	r0, [pc, #60]	; 807c <check_read_status+0x5c>
    803c:	e5900020 	ldr	r0, [r0, #32]
    8040:	e59f1038 	ldr	r1, [pc, #56]	; 8080 <check_read_status+0x60>
    8044:	e5810000 	str	r0, [r1]
    8048:	e0800002 	add	r0, r0, r2
    804c:	e59f1030 	ldr	r1, [pc, #48]	; 8084 <check_read_status+0x64>
    8050:	e5810000 	str	r0, [r1]
    8054:	e59f102c 	ldr	r1, [pc, #44]	; 8088 <check_read_status+0x68>
    8058:	e5810000 	str	r0, [r1]
    805c:	e2800c0a 	add	r0, r0, #2560	; 0xa00
    8060:	e59f1024 	ldr	r1, [pc, #36]	; 808c <check_read_status+0x6c>
    8064:	e5810000 	str	r0, [r1]
    8068:	e2800c5a 	add	r0, r0, #23040	; 0x5a00
    806c:	e59f101c 	ldr	r1, [pc, #28]	; 8090 <check_read_status+0x70>
    8070:	e5810000 	str	r0, [r1]
    8074:	e1a0f00e 	mov	pc, lr
    8078:	2000b880 	.word	0x2000b880
    807c:	0000b000 	.word	0x0000b000
    8080:	0000b034 	.word	0x0000b034
    8084:	0000b028 	.word	0x0000b028
    8088:	0000b030 	.word	0x0000b030
    808c:	0000b02c 	.word	0x0000b02c
    8090:	0000b038 	.word	0x0000b038

00008094 <main>:
    8094:	e3a0d902 	mov	sp, #32768	; 0x8000
    8098:	ebffffd9 	bl	8004 <setup_framebuffer>
    809c:	e59f0764 	ldr	r0, [pc, #1892]	; 8808 <halt+0x4>
    80a0:	e3a03001 	mov	r3, #1

000080a4 <skip_line>:
    80a4:	e2800001 	add	r0, r0, #1
    80a8:	e5d01000 	ldrb	r1, [r0]
    80ac:	e351000a 	cmp	r1, #10
    80b0:	1afffffb 	bne	80a4 <skip_line>
    80b4:	e2800001 	add	r0, r0, #1
    80b8:	e1a02000 	mov	r2, r0

000080bc <find_1F_A>:
    80bc:	e5d01000 	ldrb	r1, [r0]
    80c0:	e3510041 	cmp	r1, #65	; 0x41
    80c4:	0a00001d 	beq	8140 <find_1F_T>
    80c8:	e351000a 	cmp	r1, #10
    80cc:	0a000009 	beq	80f8 <F_change_frame>
    80d0:	e5d01001 	ldrb	r1, [r0, #1]
    80d4:	e351000a 	cmp	r1, #10
    80d8:	0a000016 	beq	8138 <find_1F_AT_inc>
    80dc:	e5d01002 	ldrb	r1, [r0, #2]
    80e0:	e351000a 	cmp	r1, #10
    80e4:	1a000001 	bne	80f0 <F_next_triplet>
    80e8:	e2800002 	add	r0, r0, #2
    80ec:	ea000001 	b	80f8 <F_change_frame>

000080f0 <F_next_triplet>:
    80f0:	e2800003 	add	r0, r0, #3
    80f4:	eafffff0 	b	80bc <find_1F_A>

000080f8 <F_change_frame>:
    80f8:	e3530001 	cmp	r3, #1
    80fc:	1a000003 	bne	8110 <check_frame_2F>
    8100:	e3a03002 	mov	r3, #2
    8104:	e1a00002 	mov	r0, r2
    8108:	e2800001 	add	r0, r0, #1
    810c:	eaffffea 	b	80bc <find_1F_A>

00008110 <check_frame_2F>:
    8110:	e3530002 	cmp	r3, #2
    8114:	1a000003 	bne	8128 <check_frame_3F>
    8118:	e3a03003 	mov	r3, #3
    811c:	e1a00002 	mov	r0, r2
    8120:	e2800002 	add	r0, r0, #2
    8124:	eaffffe4 	b	80bc <find_1F_A>

00008128 <check_frame_3F>:
    8128:	e3a03004 	mov	r3, #4
    812c:	e2400001 	sub	r0, r0, #1
    8130:	e1a02000 	mov	r2, r0
    8134:	ea0000ae 	b	83f4 <find_1R_T>

00008138 <find_1F_AT_inc>:
    8138:	e2800001 	add	r0, r0, #1
    813c:	eaffffed 	b	80f8 <F_change_frame>

00008140 <find_1F_T>:
    8140:	e5d01001 	ldrb	r1, [r0, #1]
    8144:	e3510054 	cmp	r1, #84	; 0x54
    8148:	0a000006 	beq	8168 <find_1F_G>
    814c:	e351000a 	cmp	r1, #10
    8150:	0afffff8 	beq	8138 <find_1F_AT_inc>
    8154:	e5d01002 	ldrb	r1, [r0, #2]
    8158:	e351000a 	cmp	r1, #10
    815c:	1affffe3 	bne	80f0 <F_next_triplet>
    8160:	e2800002 	add	r0, r0, #2
    8164:	eaffffe3 	b	80f8 <F_change_frame>

00008168 <find_1F_G>:
    8168:	e5d01002 	ldrb	r1, [r0, #2]
    816c:	e3510047 	cmp	r1, #71	; 0x47
    8170:	0a000003 	beq	8184 <print_F_M>
    8174:	e351000a 	cmp	r1, #10
    8178:	1affffdc 	bne	80f0 <F_next_triplet>
    817c:	e2800002 	add	r0, r0, #2
    8180:	eaffffdc 	b	80f8 <F_change_frame>

00008184 <print_F_M>:
    8184:	eb0004e9 	bl	9530 <print_M>
    8188:	e2800003 	add	r0, r0, #3

0000818c <print_F_loop>:
    818c:	e5d01000 	ldrb	r1, [r0]
    8190:	e351000a 	cmp	r1, #10
    8194:	0a000196 	beq	87f4 <call_scroll_up_F>
    8198:	e2800001 	add	r0, r0, #1
    819c:	e5d04000 	ldrb	r4, [r0]
    81a0:	e354000a 	cmp	r4, #10
    81a4:	0a000192 	beq	87f4 <call_scroll_up_F>
    81a8:	e2800001 	add	r0, r0, #1
    81ac:	e5d05000 	ldrb	r5, [r0]
    81b0:	e355000a 	cmp	r5, #10
    81b4:	0a00018e 	beq	87f4 <call_scroll_up_F>
    81b8:	e3510054 	cmp	r1, #84	; 0x54
    81bc:	0a000007 	beq	81e0 <test_TA>
    81c0:	e3510043 	cmp	r1, #67	; 0x43
    81c4:	0a00000f 	beq	8208 <test_CA>
    81c8:	e3510041 	cmp	r1, #65	; 0x41
    81cc:	0a000017 	beq	8230 <test_AA>
    81d0:	e3510047 	cmp	r1, #71	; 0x47
    81d4:	0a00001f 	beq	8258 <test_GA>
    81d8:	eb00076f 	bl	9f9c <print_X>
    81dc:	ea00007f 	b	83e0 <post_translate_F>

000081e0 <test_TA>:
    81e0:	e3540041 	cmp	r4, #65	; 0x41
    81e4:	0a000025 	beq	8280 <test_TAA>
    81e8:	e3540043 	cmp	r4, #67	; 0x43
    81ec:	0a00002c 	beq	82a4 <test_TCA>
    81f0:	e3540047 	cmp	r4, #71	; 0x47
    81f4:	0a00002c 	beq	82ac <test_TGA>
    81f8:	e3540054 	cmp	r4, #84	; 0x54
    81fc:	0a000033 	beq	82d0 <test_TTA>
    8200:	eb000765 	bl	9f9c <print_X>
    8204:	ea000075 	b	83e0 <post_translate_F>

00008208 <test_CA>:
    8208:	e3540041 	cmp	r4, #65	; 0x41
    820c:	0a000055 	beq	8368 <test_CAA>
    8210:	e3540043 	cmp	r4, #67	; 0x43
    8214:	0a000060 	beq	839c <test_CCA>
    8218:	e3540047 	cmp	r4, #71	; 0x47
    821c:	0a00005c 	beq	8394 <test_CGA>
    8220:	e3540054 	cmp	r4, #84	; 0x54
    8224:	0a000058 	beq	838c <test_CTA>
    8228:	eb00075b 	bl	9f9c <print_X>
    822c:	ea00006b 	b	83e0 <post_translate_F>

00008230 <test_AA>:
    8230:	e3540041 	cmp	r4, #65	; 0x41
    8234:	0a00002e 	beq	82f4 <test_AAA>
    8238:	e3540043 	cmp	r4, #67	; 0x43
    823c:	0a00003e 	beq	833c <test_ACA>
    8240:	e3540047 	cmp	r4, #71	; 0x47
    8244:	0a00003e 	beq	8344 <test_AGA>
    8248:	e3540054 	cmp	r4, #84	; 0x54
    824c:	0a000031 	beq	8318 <test_ATA>
    8250:	eb000751 	bl	9f9c <print_X>
    8254:	ea000061 	b	83e0 <post_translate_F>

00008258 <test_GA>:
    8258:	e3540041 	cmp	r4, #65	; 0x41
    825c:	0a000050 	beq	83a4 <test_GAA>
    8260:	e3540043 	cmp	r4, #67	; 0x43
    8264:	0a000057 	beq	83c8 <test_GCA>
    8268:	e3540047 	cmp	r4, #71	; 0x47
    826c:	0a000059 	beq	83d8 <test_GGA>
    8270:	e3540054 	cmp	r4, #84	; 0x54
    8274:	0a000055 	beq	83d0 <test_GTA>
    8278:	eb000747 	bl	9f9c <print_X>
    827c:	ea000057 	b	83e0 <post_translate_F>

00008280 <test_TAA>:
    8280:	e3550041 	cmp	r5, #65	; 0x41
    8284:	0b0007be 	bleq	a184 <print_stopF>
    8288:	e3550043 	cmp	r5, #67	; 0x43
    828c:	0b000781 	bleq	a098 <print_Y>
    8290:	e3550047 	cmp	r5, #71	; 0x47
    8294:	0b0007ba 	bleq	a184 <print_stopF>
    8298:	e3550054 	cmp	r5, #84	; 0x54
    829c:	0b00077d 	bleq	a098 <print_Y>
    82a0:	ea00004e 	b	83e0 <post_translate_F>

000082a4 <test_TCA>:
    82a4:	eb000620 	bl	9b2c <print_S>
    82a8:	ea00004c 	b	83e0 <post_translate_F>

000082ac <test_TGA>:
    82ac:	e3550041 	cmp	r5, #65	; 0x41
    82b0:	0b0007b3 	bleq	a184 <print_stopF>
    82b4:	e3550043 	cmp	r5, #67	; 0x43
    82b8:	0b000207 	bleq	8adc <print_C>
    82bc:	e3550047 	cmp	r5, #71	; 0x47
    82c0:	0b0006eb 	bleq	9e74 <print_W>
    82c4:	e3550054 	cmp	r5, #84	; 0x54
    82c8:	0b000203 	bleq	8adc <print_C>
    82cc:	ea000043 	b	83e0 <post_translate_F>

000082d0 <test_TTA>:
    82d0:	e3550041 	cmp	r5, #65	; 0x41
    82d4:	0b000456 	bleq	9434 <print_L>
    82d8:	e3550043 	cmp	r5, #67	; 0x43
    82dc:	0b0002e2 	bleq	8e6c <print_F>
    82e0:	e3550047 	cmp	r5, #71	; 0x47
    82e4:	0b000452 	bleq	9434 <print_L>
    82e8:	e3550054 	cmp	r5, #84	; 0x54
    82ec:	0b0002de 	bleq	8e6c <print_F>
    82f0:	ea00003a 	b	83e0 <post_translate_F>

000082f4 <test_AAA>:
    82f4:	e3550041 	cmp	r5, #65	; 0x41
    82f8:	0b0003fd 	bleq	92f4 <print_K>
    82fc:	e3550043 	cmp	r5, #67	; 0x43
    8300:	0b0004d3 	bleq	9654 <print_N>
    8304:	e3550047 	cmp	r5, #71	; 0x47
    8308:	0b0003f9 	bleq	92f4 <print_K>
    830c:	e3550054 	cmp	r5, #84	; 0x54
    8310:	0b0004cf 	bleq	9654 <print_N>
    8314:	ea000031 	b	83e0 <post_translate_F>

00008318 <test_ATA>:
    8318:	e3550041 	cmp	r5, #65	; 0x41
    831c:	0b0003ad 	bleq	91d8 <print_I>
    8320:	e3550043 	cmp	r5, #67	; 0x43
    8324:	0b0003ab 	bleq	91d8 <print_I>
    8328:	e3550047 	cmp	r5, #71	; 0x47
    832c:	0b00047f 	bleq	9530 <print_M>
    8330:	e3550054 	cmp	r5, #84	; 0x54
    8334:	0b0003a7 	bleq	91d8 <print_I>
    8338:	ea000028 	b	83e0 <post_translate_F>

0000833c <test_ACA>:
    833c:	eb000649 	bl	9c68 <print_T>
    8340:	ea000026 	b	83e0 <post_translate_F>

00008344 <test_AGA>:
    8344:	e3550041 	cmp	r5, #65	; 0x41
    8348:	0b0005a3 	bleq	99dc <print_R>
    834c:	e3550043 	cmp	r5, #67	; 0x43
    8350:	0b0005f5 	bleq	9b2c <print_S>
    8354:	e3550047 	cmp	r5, #71	; 0x47
    8358:	0b00059f 	bleq	99dc <print_R>
    835c:	e3550054 	cmp	r5, #84	; 0x54
    8360:	0b0005f1 	bleq	9b2c <print_S>
    8364:	ea00001d 	b	83e0 <post_translate_F>

00008368 <test_CAA>:
    8368:	e3550041 	cmp	r5, #65	; 0x41
    836c:	0b00054a 	bleq	989c <print_Q>
    8370:	e3550043 	cmp	r5, #67	; 0x43
    8374:	0b000350 	bleq	90bc <print_H>
    8378:	e3550047 	cmp	r5, #71	; 0x47
    837c:	0b000546 	bleq	989c <print_Q>
    8380:	e3550054 	cmp	r5, #84	; 0x54
    8384:	0b00034c 	bleq	90bc <print_H>
    8388:	ea000014 	b	83e0 <post_translate_F>

0000838c <test_CTA>:
    838c:	eb000428 	bl	9434 <print_L>
    8390:	ea000012 	b	83e0 <post_translate_F>

00008394 <test_CGA>:
    8394:	eb000590 	bl	99dc <print_R>
    8398:	ea000010 	b	83e0 <post_translate_F>

0000839c <test_CCA>:
    839c:	eb0004f4 	bl	9774 <print_P>
    83a0:	ea00000e 	b	83e0 <post_translate_F>

000083a4 <test_GAA>:
    83a4:	e3550041 	cmp	r5, #65	; 0x41
    83a8:	0b000261 	bleq	8d34 <print_E>
    83ac:	e3550043 	cmp	r5, #67	; 0x43
    83b0:	0b000210 	bleq	8bf8 <print_D>
    83b4:	e3550047 	cmp	r5, #71	; 0x47
    83b8:	0b00025d 	bleq	8d34 <print_E>
    83bc:	e3550054 	cmp	r5, #84	; 0x54
    83c0:	0b00020c 	bleq	8bf8 <print_D>
    83c4:	ea000005 	b	83e0 <post_translate_F>

000083c8 <test_GCA>:
    83c8:	eb000125 	bl	8864 <print_A>
    83cc:	ea000003 	b	83e0 <post_translate_F>

000083d0 <test_GTA>:
    83d0:	eb000664 	bl	9d68 <print_V>
    83d4:	ea000001 	b	83e0 <post_translate_F>

000083d8 <test_GGA>:
    83d8:	eb0002e9 	bl	8f84 <print_G>
    83dc:	eaffffff 	b	83e0 <post_translate_F>

000083e0 <post_translate_F>:
    83e0:	e2800001 	add	r0, r0, #1
    83e4:	e5d01000 	ldrb	r1, [r0]
    83e8:	e351000a 	cmp	r1, #10
    83ec:	0a000100 	beq	87f4 <call_scroll_up_F>
    83f0:	eaffff65 	b	818c <print_F_loop>

000083f4 <find_1R_T>:
    83f4:	e5d01000 	ldrb	r1, [r0]
    83f8:	e3510054 	cmp	r1, #84	; 0x54
    83fc:	0a000009 	beq	8428 <find_1R_A>
    8400:	e351000a 	cmp	r1, #10
    8404:	0a00001c 	beq	847c <R_change_frame>
    8408:	e5501001 	ldrb	r1, [r0, #-1]
    840c:	e351000a 	cmp	r1, #10
    8410:	0a000015 	beq	846c <find_1R_AT_dec>
    8414:	e5501002 	ldrb	r1, [r0, #-2]
    8418:	e351000a 	cmp	r1, #10
    841c:	1a000014 	bne	8474 <R_next_triplet>
    8420:	e2400002 	sub	r0, r0, #2
    8424:	ea000014 	b	847c <R_change_frame>

00008428 <find_1R_A>:
    8428:	e5501001 	ldrb	r1, [r0, #-1]
    842c:	e3510041 	cmp	r1, #65	; 0x41
    8430:	0a000006 	beq	8450 <find_1R_C>
    8434:	e351000a 	cmp	r1, #10
    8438:	0a00000b 	beq	846c <find_1R_AT_dec>
    843c:	e5501002 	ldrb	r1, [r0, #-2]
    8440:	e351000a 	cmp	r1, #10
    8444:	1a00000a 	bne	8474 <R_next_triplet>
    8448:	e2400002 	sub	r0, r0, #2
    844c:	ea00000a 	b	847c <R_change_frame>

00008450 <find_1R_C>:
    8450:	e5501002 	ldrb	r1, [r0, #-2]
    8454:	e3510043 	cmp	r1, #67	; 0x43
    8458:	0a00001a 	beq	84c8 <print_R_M>
    845c:	e351000a 	cmp	r1, #10
    8460:	1a000003 	bne	8474 <R_next_triplet>
    8464:	e2400002 	sub	r0, r0, #2
    8468:	ea000003 	b	847c <R_change_frame>

0000846c <find_1R_AT_dec>:
    846c:	e2400001 	sub	r0, r0, #1
    8470:	ea000001 	b	847c <R_change_frame>

00008474 <R_next_triplet>:
    8474:	e2400003 	sub	r0, r0, #3
    8478:	eaffffdd 	b	83f4 <find_1R_T>

0000847c <R_change_frame>:
    847c:	e3530004 	cmp	r3, #4
    8480:	1a000003 	bne	8494 <check_frame_5R>
    8484:	e3a03005 	mov	r3, #5
    8488:	e1a00002 	mov	r0, r2
    848c:	e2400001 	sub	r0, r0, #1
    8490:	eaffffd7 	b	83f4 <find_1R_T>

00008494 <check_frame_5R>:
    8494:	e3530005 	cmp	r3, #5
    8498:	1a000003 	bne	84ac <frame_6R>
    849c:	e3a03006 	mov	r3, #6
    84a0:	e1a00002 	mov	r0, r2
    84a4:	e2400002 	sub	r0, r0, #2
    84a8:	eaffffd1 	b	83f4 <find_1R_T>

000084ac <frame_6R>:
    84ac:	e3a03001 	mov	r3, #1
    84b0:	e1a00002 	mov	r0, r2
    84b4:	e2800002 	add	r0, r0, #2
    84b8:	e5d01000 	ldrb	r1, [r0]
    84bc:	e3510000 	cmp	r1, #0
    84c0:	1afffef7 	bne	80a4 <skip_line>
    84c4:	ea0000ce 	b	8804 <halt>

000084c8 <print_R_M>:
    84c8:	eb000418 	bl	9530 <print_M>
    84cc:	e2400003 	sub	r0, r0, #3

000084d0 <print_R_loop>:
    84d0:	e5d01000 	ldrb	r1, [r0]
    84d4:	e351000a 	cmp	r1, #10
    84d8:	0a0000c7 	beq	87fc <call_scroll_up_R>
    84dc:	e3510041 	cmp	r1, #65	; 0x41
    84e0:	1a000001 	bne	84ec <test_1R_T>
    84e4:	e3a01054 	mov	r1, #84	; 0x54
    84e8:	ea00000b 	b	851c <test_2R_A>

000084ec <test_1R_T>:
    84ec:	e3510054 	cmp	r1, #84	; 0x54
    84f0:	1a000001 	bne	84fc <test_1R_C>
    84f4:	e3a01041 	mov	r1, #65	; 0x41
    84f8:	ea000007 	b	851c <test_2R_A>

000084fc <test_1R_C>:
    84fc:	e3510043 	cmp	r1, #67	; 0x43
    8500:	1a000001 	bne	850c <test_1R_G>
    8504:	e3a01047 	mov	r1, #71	; 0x47
    8508:	ea000003 	b	851c <test_2R_A>

0000850c <test_1R_G>:
    850c:	e3510047 	cmp	r1, #71	; 0x47
    8510:	1a000029 	bne	85bc <print_B_R>
    8514:	e3a01043 	mov	r1, #67	; 0x43
    8518:	eaffffff 	b	851c <test_2R_A>

0000851c <test_2R_A>:
    851c:	e5504001 	ldrb	r4, [r0, #-1]
    8520:	e3540041 	cmp	r4, #65	; 0x41
    8524:	1a000001 	bne	8530 <test_2R_T>
    8528:	e3a04054 	mov	r4, #84	; 0x54
    852c:	ea00000e 	b	856c <test_3R_A>

00008530 <test_2R_T>:
    8530:	e3540054 	cmp	r4, #84	; 0x54
    8534:	1a000001 	bne	8540 <test_2R_C>
    8538:	e3a04041 	mov	r4, #65	; 0x41
    853c:	ea00000a 	b	856c <test_3R_A>

00008540 <test_2R_C>:
    8540:	e3540043 	cmp	r4, #67	; 0x43
    8544:	1a000001 	bne	8550 <test_2R_G>
    8548:	e3a04047 	mov	r4, #71	; 0x47
    854c:	ea000006 	b	856c <test_3R_A>

00008550 <test_2R_G>:
    8550:	e3540047 	cmp	r4, #71	; 0x47
    8554:	1a000001 	bne	8560 <test_2R_NL>
    8558:	e3a04043 	mov	r4, #67	; 0x43
    855c:	ea000002 	b	856c <test_3R_A>

00008560 <test_2R_NL>:
    8560:	e354000a 	cmp	r4, #10
    8564:	0a0000a4 	beq	87fc <call_scroll_up_R>
    8568:	ea000013 	b	85bc <print_B_R>

0000856c <test_3R_A>:
    856c:	e5505002 	ldrb	r5, [r0, #-2]
    8570:	e3550041 	cmp	r5, #65	; 0x41
    8574:	1a000001 	bne	8580 <test_3R_T>
    8578:	e3a05054 	mov	r5, #84	; 0x54
    857c:	ea000010 	b	85c4 <find_R>

00008580 <test_3R_T>:
    8580:	e3550054 	cmp	r5, #84	; 0x54
    8584:	1a000001 	bne	8590 <test_3R_C>
    8588:	e3a05041 	mov	r5, #65	; 0x41
    858c:	ea00000c 	b	85c4 <find_R>

00008590 <test_3R_C>:
    8590:	e3550043 	cmp	r5, #67	; 0x43
    8594:	1a000001 	bne	85a0 <test_3R_G>
    8598:	e3a05047 	mov	r5, #71	; 0x47
    859c:	ea000008 	b	85c4 <find_R>

000085a0 <test_3R_G>:
    85a0:	e3550047 	cmp	r5, #71	; 0x47
    85a4:	1a000001 	bne	85b0 <test_3R_NL>
    85a8:	e3a05043 	mov	r5, #67	; 0x43
    85ac:	ea000004 	b	85c4 <find_R>

000085b0 <test_3R_NL>:
    85b0:	e355000a 	cmp	r5, #10
    85b4:	0a000090 	beq	87fc <call_scroll_up_R>
    85b8:	eaffffff 	b	85bc <print_B_R>

000085bc <print_B_R>:
    85bc:	eb000676 	bl	9f9c <print_X>
    85c0:	ea000089 	b	87ec <post_translate_R>

000085c4 <find_R>:
    85c4:	e3510054 	cmp	r1, #84	; 0x54
    85c8:	0a000007 	beq	85ec <Rtest_TA>
    85cc:	e3510043 	cmp	r1, #67	; 0x43
    85d0:	0a00000f 	beq	8614 <Rtest_CA>
    85d4:	e3510041 	cmp	r1, #65	; 0x41
    85d8:	0a000017 	beq	863c <Rtest_AA>
    85dc:	e3510047 	cmp	r1, #71	; 0x47
    85e0:	0a00001f 	beq	8664 <Rtest_GA>
    85e4:	eb00066c 	bl	9f9c <print_X>
    85e8:	ea00007f 	b	87ec <post_translate_R>

000085ec <Rtest_TA>:
    85ec:	e3540041 	cmp	r4, #65	; 0x41
    85f0:	0a000025 	beq	868c <Rtest_TAA>
    85f4:	e3540043 	cmp	r4, #67	; 0x43
    85f8:	0a00002c 	beq	86b0 <Rtest_TCA>
    85fc:	e3540047 	cmp	r4, #71	; 0x47
    8600:	0a00002c 	beq	86b8 <Rtest_TGA>
    8604:	e3540054 	cmp	r4, #84	; 0x54
    8608:	0a000033 	beq	86dc <Rtest_TTA>
    860c:	eb000662 	bl	9f9c <print_X>
    8610:	ea000075 	b	87ec <post_translate_R>

00008614 <Rtest_CA>:
    8614:	e3540041 	cmp	r4, #65	; 0x41
    8618:	0a000055 	beq	8774 <Rtest_CAA>
    861c:	e3540043 	cmp	r4, #67	; 0x43
    8620:	0a000060 	beq	87a8 <Rtest_CCA>
    8624:	e3540047 	cmp	r4, #71	; 0x47
    8628:	0a00005c 	beq	87a0 <Rtest_CGA>
    862c:	e3540054 	cmp	r4, #84	; 0x54
    8630:	0a000058 	beq	8798 <Rtest_CTA>
    8634:	eb000658 	bl	9f9c <print_X>
    8638:	ea00006b 	b	87ec <post_translate_R>

0000863c <Rtest_AA>:
    863c:	e3540041 	cmp	r4, #65	; 0x41
    8640:	0a00002e 	beq	8700 <Rtest_AAA>
    8644:	e3540043 	cmp	r4, #67	; 0x43
    8648:	0a00003e 	beq	8748 <Rtest_ACA>
    864c:	e3540047 	cmp	r4, #71	; 0x47
    8650:	0a00003e 	beq	8750 <Rtest_AGA>
    8654:	e3540054 	cmp	r4, #84	; 0x54
    8658:	0a000031 	beq	8724 <Rtest_ATA>
    865c:	eb00064e 	bl	9f9c <print_X>
    8660:	ea000061 	b	87ec <post_translate_R>

00008664 <Rtest_GA>:
    8664:	e3540041 	cmp	r4, #65	; 0x41
    8668:	0a000050 	beq	87b0 <Rtest_GAA>
    866c:	e3540043 	cmp	r4, #67	; 0x43
    8670:	0a000057 	beq	87d4 <Rtest_GCA>
    8674:	e3540047 	cmp	r4, #71	; 0x47
    8678:	0a000059 	beq	87e4 <Rtest_GGA>
    867c:	e3540054 	cmp	r4, #84	; 0x54
    8680:	0a000055 	beq	87dc <Rtest_GTA>
    8684:	eb000644 	bl	9f9c <print_X>
    8688:	ea000057 	b	87ec <post_translate_R>

0000868c <Rtest_TAA>:
    868c:	e3550041 	cmp	r5, #65	; 0x41
    8690:	0b0006fd 	bleq	a28c <print_stopR>
    8694:	e3550043 	cmp	r5, #67	; 0x43
    8698:	0b00067e 	bleq	a098 <print_Y>
    869c:	e3550047 	cmp	r5, #71	; 0x47
    86a0:	0b0006f9 	bleq	a28c <print_stopR>
    86a4:	e3550054 	cmp	r5, #84	; 0x54
    86a8:	0b00067a 	bleq	a098 <print_Y>
    86ac:	ea00004e 	b	87ec <post_translate_R>

000086b0 <Rtest_TCA>:
    86b0:	eb00051d 	bl	9b2c <print_S>
    86b4:	ea00004c 	b	87ec <post_translate_R>

000086b8 <Rtest_TGA>:
    86b8:	e3550041 	cmp	r5, #65	; 0x41
    86bc:	0b0006f2 	bleq	a28c <print_stopR>
    86c0:	e3550043 	cmp	r5, #67	; 0x43
    86c4:	0b000104 	bleq	8adc <print_C>
    86c8:	e3550047 	cmp	r5, #71	; 0x47
    86cc:	0b0005e8 	bleq	9e74 <print_W>
    86d0:	e3550054 	cmp	r5, #84	; 0x54
    86d4:	0b000100 	bleq	8adc <print_C>
    86d8:	ea000043 	b	87ec <post_translate_R>

000086dc <Rtest_TTA>:
    86dc:	e3550041 	cmp	r5, #65	; 0x41
    86e0:	0b000353 	bleq	9434 <print_L>
    86e4:	e3550043 	cmp	r5, #67	; 0x43
    86e8:	0b0001df 	bleq	8e6c <print_F>
    86ec:	e3550047 	cmp	r5, #71	; 0x47
    86f0:	0b00034f 	bleq	9434 <print_L>
    86f4:	e3550054 	cmp	r5, #84	; 0x54
    86f8:	0b0001db 	bleq	8e6c <print_F>
    86fc:	ea00003a 	b	87ec <post_translate_R>

00008700 <Rtest_AAA>:
    8700:	e3550041 	cmp	r5, #65	; 0x41
    8704:	0b0002fa 	bleq	92f4 <print_K>
    8708:	e3550043 	cmp	r5, #67	; 0x43
    870c:	0b0003d0 	bleq	9654 <print_N>
    8710:	e3550047 	cmp	r5, #71	; 0x47
    8714:	0b0002f6 	bleq	92f4 <print_K>
    8718:	e3550054 	cmp	r5, #84	; 0x54
    871c:	0b0003cc 	bleq	9654 <print_N>
    8720:	ea000031 	b	87ec <post_translate_R>

00008724 <Rtest_ATA>:
    8724:	e3550041 	cmp	r5, #65	; 0x41
    8728:	0b0002aa 	bleq	91d8 <print_I>
    872c:	e3550043 	cmp	r5, #67	; 0x43
    8730:	0b0002a8 	bleq	91d8 <print_I>
    8734:	e3550047 	cmp	r5, #71	; 0x47
    8738:	0b00037c 	bleq	9530 <print_M>
    873c:	e3550054 	cmp	r5, #84	; 0x54
    8740:	0b0002a4 	bleq	91d8 <print_I>
    8744:	ea000028 	b	87ec <post_translate_R>

00008748 <Rtest_ACA>:
    8748:	eb000546 	bl	9c68 <print_T>
    874c:	ea000026 	b	87ec <post_translate_R>

00008750 <Rtest_AGA>:
    8750:	e3550041 	cmp	r5, #65	; 0x41
    8754:	0b0004a0 	bleq	99dc <print_R>
    8758:	e3550043 	cmp	r5, #67	; 0x43
    875c:	0b0004f2 	bleq	9b2c <print_S>
    8760:	e3550047 	cmp	r5, #71	; 0x47
    8764:	0b00049c 	bleq	99dc <print_R>
    8768:	e3550054 	cmp	r5, #84	; 0x54
    876c:	0b0004ee 	bleq	9b2c <print_S>
    8770:	ea00001d 	b	87ec <post_translate_R>

00008774 <Rtest_CAA>:
    8774:	e3550041 	cmp	r5, #65	; 0x41
    8778:	0b000447 	bleq	989c <print_Q>
    877c:	e3550043 	cmp	r5, #67	; 0x43
    8780:	0b00024d 	bleq	90bc <print_H>
    8784:	e3550047 	cmp	r5, #71	; 0x47
    8788:	0b000443 	bleq	989c <print_Q>
    878c:	e3550054 	cmp	r5, #84	; 0x54
    8790:	0b000249 	bleq	90bc <print_H>
    8794:	ea000014 	b	87ec <post_translate_R>

00008798 <Rtest_CTA>:
    8798:	eb000325 	bl	9434 <print_L>
    879c:	ea000012 	b	87ec <post_translate_R>

000087a0 <Rtest_CGA>:
    87a0:	eb00048d 	bl	99dc <print_R>
    87a4:	ea000010 	b	87ec <post_translate_R>

000087a8 <Rtest_CCA>:
    87a8:	eb0003f1 	bl	9774 <print_P>
    87ac:	ea00000e 	b	87ec <post_translate_R>

000087b0 <Rtest_GAA>:
    87b0:	e3550041 	cmp	r5, #65	; 0x41
    87b4:	0b00015e 	bleq	8d34 <print_E>
    87b8:	e3550043 	cmp	r5, #67	; 0x43
    87bc:	0b00010d 	bleq	8bf8 <print_D>
    87c0:	e3550047 	cmp	r5, #71	; 0x47
    87c4:	0b00015a 	bleq	8d34 <print_E>
    87c8:	e3550054 	cmp	r5, #84	; 0x54
    87cc:	0b000109 	bleq	8bf8 <print_D>
    87d0:	ea000005 	b	87ec <post_translate_R>

000087d4 <Rtest_GCA>:
    87d4:	eb000022 	bl	8864 <print_A>
    87d8:	ea000003 	b	87ec <post_translate_R>

000087dc <Rtest_GTA>:
    87dc:	eb000561 	bl	9d68 <print_V>
    87e0:	ea000001 	b	87ec <post_translate_R>

000087e4 <Rtest_GGA>:
    87e4:	eb0001e6 	bl	8f84 <print_G>
    87e8:	eaffffff 	b	87ec <post_translate_R>

000087ec <post_translate_R>:
    87ec:	e2400003 	sub	r0, r0, #3
    87f0:	eaffff36 	b	84d0 <print_R_loop>

000087f4 <call_scroll_up_F>:
    87f4:	eb000004 	bl	880c <print_newline>
    87f8:	eafffe3e 	b	80f8 <F_change_frame>

000087fc <call_scroll_up_R>:
    87fc:	eb000002 	bl	880c <print_newline>
    8800:	eaffff1d 	b	847c <R_change_frame>

00008804 <halt>:
    8804:	eafffffe 	b	8804 <halt>
    8808:	0000b03c 	.word	0x0000b03c

0000880c <print_newline>:
    880c:	e92d001f 	push	{r0, r1, r2, r3, r4}
    8810:	e59f0150 	ldr	r0, [pc, #336]	; 8968 <proceed_print_A+0x94>
    8814:	e5900000 	ldr	r0, [r0]
    8818:	e59f314c 	ldr	r3, [pc, #332]	; 896c <proceed_print_A+0x98>
    881c:	e5933000 	ldr	r3, [r3]
    8820:	e59f4148 	ldr	r4, [pc, #328]	; 8970 <proceed_print_A+0x9c>
    8824:	e5843000 	str	r3, [r4]
    8828:	e3a01b19 	mov	r1, #25600	; 0x6400

0000882c <newline_loop>:
    882c:	e7902001 	ldr	r2, [r0, r1]
    8830:	e5802000 	str	r2, [r0]
    8834:	e2800004 	add	r0, r0, #4
    8838:	e1500003 	cmp	r0, r3
    883c:	bafffffa 	blt	882c <newline_loop>
    8840:	e3a02000 	mov	r2, #0
    8844:	e59f3128 	ldr	r3, [pc, #296]	; 8974 <proceed_print_A+0xa0>
    8848:	e5933000 	ldr	r3, [r3]

0000884c <make_black_loop>:
    884c:	e5802000 	str	r2, [r0]
    8850:	e2800004 	add	r0, r0, #4
    8854:	e1500003 	cmp	r0, r3
    8858:	bafffffb 	blt	884c <make_black_loop>
    885c:	e8bd001f 	pop	{r0, r1, r2, r3, r4}
    8860:	e1a0f00e 	mov	pc, lr

00008864 <print_A>:
    8864:	e92d001f 	push	{r0, r1, r2, r3, r4}
    8868:	e59f3100 	ldr	r3, [pc, #256]	; 8970 <proceed_print_A+0x9c>
    886c:	e5930000 	ldr	r0, [r3]
    8870:	e1a02000 	mov	r2, r0
    8874:	e59f40fc 	ldr	r4, [pc, #252]	; 8978 <proceed_print_A+0xa4>
    8878:	e5944000 	ldr	r4, [r4]
    887c:	e1500004 	cmp	r0, r4
    8880:	1a000013 	bne	88d4 <proceed_print_A>
    8884:	e2422c0a 	sub	r2, r2, #2560	; 0xa00
    8888:	e92d001f 	push	{r0, r1, r2, r3, r4}
    888c:	e59f00d4 	ldr	r0, [pc, #212]	; 8968 <proceed_print_A+0x94>
    8890:	e5900000 	ldr	r0, [r0]
    8894:	e59f30d0 	ldr	r3, [pc, #208]	; 896c <proceed_print_A+0x98>
    8898:	e5933000 	ldr	r3, [r3]
    889c:	e3a01b19 	mov	r1, #25600	; 0x6400

000088a0 <newline_A_loop>:
    88a0:	e7902001 	ldr	r2, [r0, r1]
    88a4:	e5802000 	str	r2, [r0]
    88a8:	e2800004 	add	r0, r0, #4
    88ac:	e1500003 	cmp	r0, r3
    88b0:	bafffffa 	blt	88a0 <newline_A_loop>
    88b4:	e3a02000 	mov	r2, #0
    88b8:	e59f30b4 	ldr	r3, [pc, #180]	; 8974 <proceed_print_A+0xa0>
    88bc:	e5933000 	ldr	r3, [r3]

000088c0 <make_A_black_loop>:
    88c0:	e5802000 	str	r2, [r0]
    88c4:	e2800004 	add	r0, r0, #4
    88c8:	e1500003 	cmp	r0, r3
    88cc:	bafffffb 	blt	88c0 <make_A_black_loop>
    88d0:	e8bd001f 	pop	{r0, r1, r2, r3, r4}

000088d4 <proceed_print_A>:
    88d4:	e3e014ff 	mvn	r1, #-16777216	; 0xff000000
    88d8:	e1c010b8 	strh	r1, [r0, #8]
    88dc:	e2800c0a 	add	r0, r0, #2560	; 0xa00
    88e0:	e1c010b6 	strh	r1, [r0, #6]
    88e4:	e1c010ba 	strh	r1, [r0, #10]
    88e8:	e2800c0a 	add	r0, r0, #2560	; 0xa00
    88ec:	e1c010b4 	strh	r1, [r0, #4]
    88f0:	e1c010bc 	strh	r1, [r0, #12]
    88f4:	e2800c0a 	add	r0, r0, #2560	; 0xa00
    88f8:	e1c010b4 	strh	r1, [r0, #4]
    88fc:	e1c010bc 	strh	r1, [r0, #12]
    8900:	e2800c0a 	add	r0, r0, #2560	; 0xa00
    8904:	e1c010b2 	strh	r1, [r0, #2]
    8908:	e1c010b4 	strh	r1, [r0, #4]
    890c:	e1c010b6 	strh	r1, [r0, #6]
    8910:	e1c010b8 	strh	r1, [r0, #8]
    8914:	e1c010ba 	strh	r1, [r0, #10]
    8918:	e1c010bc 	strh	r1, [r0, #12]
    891c:	e1c010be 	strh	r1, [r0, #14]
    8920:	e2800c0a 	add	r0, r0, #2560	; 0xa00
    8924:	e1c010b2 	strh	r1, [r0, #2]
    8928:	e1c010be 	strh	r1, [r0, #14]
    892c:	e2800c0a 	add	r0, r0, #2560	; 0xa00
    8930:	e1c010b0 	strh	r1, [r0]
    8934:	e1c010b2 	strh	r1, [r0, #2]
    8938:	e1c010be 	strh	r1, [r0, #14]
    893c:	e1c011b0 	strh	r1, [r0, #16]
    8940:	e2800c0a 	add	r0, r0, #2560	; 0xa00
    8944:	e1c010b0 	strh	r1, [r0]
    8948:	e1c011b0 	strh	r1, [r0, #16]
    894c:	e2800c0a 	add	r0, r0, #2560	; 0xa00
    8950:	e1c010b0 	strh	r1, [r0]
    8954:	e1c011b0 	strh	r1, [r0, #16]
    8958:	e2822014 	add	r2, r2, #20
    895c:	e5832000 	str	r2, [r3]
    8960:	e8bd001f 	pop	{r0, r1, r2, r3, r4}
    8964:	e1a0f00e 	mov	pc, lr
    8968:	0000b034 	.word	0x0000b034
    896c:	0000b028 	.word	0x0000b028
    8970:	0000b030 	.word	0x0000b030
    8974:	0000b038 	.word	0x0000b038
    8978:	0000b02c 	.word	0x0000b02c

0000897c <print_B>:
    897c:	e92d001f 	push	{r0, r1, r2, r3, r4}
    8980:	e59f3140 	ldr	r3, [pc, #320]	; 8ac8 <proceed_print_B+0xdc>
    8984:	e5930000 	ldr	r0, [r3]
    8988:	e1a02000 	mov	r2, r0
    898c:	e59f4138 	ldr	r4, [pc, #312]	; 8acc <proceed_print_B+0xe0>
    8990:	e5944000 	ldr	r4, [r4]
    8994:	e1500004 	cmp	r0, r4
    8998:	1a000013 	bne	89ec <proceed_print_B>
    899c:	e2422c0a 	sub	r2, r2, #2560	; 0xa00
    89a0:	e92d001f 	push	{r0, r1, r2, r3, r4}
    89a4:	e59f0124 	ldr	r0, [pc, #292]	; 8ad0 <proceed_print_B+0xe4>
    89a8:	e5900000 	ldr	r0, [r0]
    89ac:	e59f3120 	ldr	r3, [pc, #288]	; 8ad4 <proceed_print_B+0xe8>
    89b0:	e5933000 	ldr	r3, [r3]
    89b4:	e3a01b19 	mov	r1, #25600	; 0x6400

000089b8 <newline_B_loop>:
    89b8:	e7902001 	ldr	r2, [r0, r1]
    89bc:	e5802000 	str	r2, [r0]
    89c0:	e2800004 	add	r0, r0, #4
    89c4:	e1500003 	cmp	r0, r3
    89c8:	bafffffa 	blt	89b8 <newline_B_loop>
    89cc:	e3a02000 	mov	r2, #0
    89d0:	e59f3100 	ldr	r3, [pc, #256]	; 8ad8 <proceed_print_B+0xec>
    89d4:	e5933000 	ldr	r3, [r3]

000089d8 <make_B_black_loop>:
    89d8:	e5802000 	str	r2, [r0]
    89dc:	e2800004 	add	r0, r0, #4
    89e0:	e1500003 	cmp	r0, r3
    89e4:	bafffffb 	blt	89d8 <make_B_black_loop>
    89e8:	e8bd001f 	pop	{r0, r1, r2, r3, r4}

000089ec <proceed_print_B>:
    89ec:	e3e014ff 	mvn	r1, #-16777216	; 0xff000000
    89f0:	e1c010b0 	strh	r1, [r0]
    89f4:	e1c010b2 	strh	r1, [r0, #2]
    89f8:	e1c010b4 	strh	r1, [r0, #4]
    89fc:	e1c010b6 	strh	r1, [r0, #6]
    8a00:	e1c010b8 	strh	r1, [r0, #8]
    8a04:	e1c010ba 	strh	r1, [r0, #10]
    8a08:	e1c010bc 	strh	r1, [r0, #12]
    8a0c:	e2800c0a 	add	r0, r0, #2560	; 0xa00
    8a10:	e1c010b0 	strh	r1, [r0]
    8a14:	e1c010ba 	strh	r1, [r0, #10]
    8a18:	e1c010bc 	strh	r1, [r0, #12]
    8a1c:	e1c010be 	strh	r1, [r0, #14]
    8a20:	e2800c0a 	add	r0, r0, #2560	; 0xa00
    8a24:	e1c010b0 	strh	r1, [r0]
    8a28:	e1c010be 	strh	r1, [r0, #14]
    8a2c:	e1c011b0 	strh	r1, [r0, #16]
    8a30:	e2800c0a 	add	r0, r0, #2560	; 0xa00
    8a34:	e1c010b0 	strh	r1, [r0]
    8a38:	e1c010ba 	strh	r1, [r0, #10]
    8a3c:	e1c010bc 	strh	r1, [r0, #12]
    8a40:	e1c010be 	strh	r1, [r0, #14]
    8a44:	e2800c0a 	add	r0, r0, #2560	; 0xa00
    8a48:	e1c010b0 	strh	r1, [r0]
    8a4c:	e1c010b2 	strh	r1, [r0, #2]
    8a50:	e1c010b4 	strh	r1, [r0, #4]
    8a54:	e1c010b6 	strh	r1, [r0, #6]
    8a58:	e1c010b8 	strh	r1, [r0, #8]
    8a5c:	e1c010ba 	strh	r1, [r0, #10]
    8a60:	e2800c0a 	add	r0, r0, #2560	; 0xa00
    8a64:	e1c010b0 	strh	r1, [r0]
    8a68:	e1c010ba 	strh	r1, [r0, #10]
    8a6c:	e1c010bc 	strh	r1, [r0, #12]
    8a70:	e1c010be 	strh	r1, [r0, #14]
    8a74:	e2800c0a 	add	r0, r0, #2560	; 0xa00
    8a78:	e1c010b0 	strh	r1, [r0]
    8a7c:	e1c010be 	strh	r1, [r0, #14]
    8a80:	e1c011b0 	strh	r1, [r0, #16]
    8a84:	e2800c0a 	add	r0, r0, #2560	; 0xa00
    8a88:	e1c010b0 	strh	r1, [r0]
    8a8c:	e1c010ba 	strh	r1, [r0, #10]
    8a90:	e1c010bc 	strh	r1, [r0, #12]
    8a94:	e1c010be 	strh	r1, [r0, #14]
    8a98:	e2800c0a 	add	r0, r0, #2560	; 0xa00
    8a9c:	e1c010b0 	strh	r1, [r0]
    8aa0:	e1c010b2 	strh	r1, [r0, #2]
    8aa4:	e1c010b4 	strh	r1, [r0, #4]
    8aa8:	e1c010b6 	strh	r1, [r0, #6]
    8aac:	e1c010b8 	strh	r1, [r0, #8]
    8ab0:	e1c010ba 	strh	r1, [r0, #10]
    8ab4:	e1c010bc 	strh	r1, [r0, #12]
    8ab8:	e2822014 	add	r2, r2, #20
    8abc:	e5832000 	str	r2, [r3]
    8ac0:	e8bd001f 	pop	{r0, r1, r2, r3, r4}
    8ac4:	e1a0f00e 	mov	pc, lr
    8ac8:	0000b030 	.word	0x0000b030
    8acc:	0000b02c 	.word	0x0000b02c
    8ad0:	0000b034 	.word	0x0000b034
    8ad4:	0000b028 	.word	0x0000b028
    8ad8:	0000b038 	.word	0x0000b038

00008adc <print_C>:
    8adc:	e92d001f 	push	{r0, r1, r2, r3, r4}
    8ae0:	e59f30fc 	ldr	r3, [pc, #252]	; 8be4 <proceed_print_C+0x98>
    8ae4:	e5930000 	ldr	r0, [r3]
    8ae8:	e1a02000 	mov	r2, r0
    8aec:	e59f40f4 	ldr	r4, [pc, #244]	; 8be8 <proceed_print_C+0x9c>
    8af0:	e5944000 	ldr	r4, [r4]
    8af4:	e1500004 	cmp	r0, r4
    8af8:	1a000013 	bne	8b4c <proceed_print_C>
    8afc:	e2422c0a 	sub	r2, r2, #2560	; 0xa00
    8b00:	e92d001f 	push	{r0, r1, r2, r3, r4}
    8b04:	e59f00e0 	ldr	r0, [pc, #224]	; 8bec <proceed_print_C+0xa0>
    8b08:	e5900000 	ldr	r0, [r0]
    8b0c:	e59f30dc 	ldr	r3, [pc, #220]	; 8bf0 <proceed_print_C+0xa4>
    8b10:	e5933000 	ldr	r3, [r3]
    8b14:	e3a01b19 	mov	r1, #25600	; 0x6400

00008b18 <newline_C_loop>:
    8b18:	e7902001 	ldr	r2, [r0, r1]
    8b1c:	e5802000 	str	r2, [r0]
    8b20:	e2800004 	add	r0, r0, #4
    8b24:	e1500003 	cmp	r0, r3
    8b28:	bafffffa 	blt	8b18 <newline_C_loop>
    8b2c:	e3a02000 	mov	r2, #0
    8b30:	e59f30bc 	ldr	r3, [pc, #188]	; 8bf4 <proceed_print_C+0xa8>
    8b34:	e5933000 	ldr	r3, [r3]

00008b38 <make_C_black_loop>:
    8b38:	e5802000 	str	r2, [r0]
    8b3c:	e2800004 	add	r0, r0, #4
    8b40:	e1500003 	cmp	r0, r3
    8b44:	bafffffb 	blt	8b38 <make_C_black_loop>
    8b48:	e8bd001f 	pop	{r0, r1, r2, r3, r4}

00008b4c <proceed_print_C>:
    8b4c:	e3e014ff 	mvn	r1, #-16777216	; 0xff000000
    8b50:	e1c010b0 	strh	r1, [r0]
    8b54:	e1c010b2 	strh	r1, [r0, #2]
    8b58:	e1c010b4 	strh	r1, [r0, #4]
    8b5c:	e1c010b6 	strh	r1, [r0, #6]
    8b60:	e1c010b8 	strh	r1, [r0, #8]
    8b64:	e1c010ba 	strh	r1, [r0, #10]
    8b68:	e1c010bc 	strh	r1, [r0, #12]
    8b6c:	e1c010be 	strh	r1, [r0, #14]
    8b70:	e1c011b0 	strh	r1, [r0, #16]
    8b74:	e2800c0a 	add	r0, r0, #2560	; 0xa00
    8b78:	e1c010b0 	strh	r1, [r0]
    8b7c:	e2800c0a 	add	r0, r0, #2560	; 0xa00
    8b80:	e1c010b0 	strh	r1, [r0]
    8b84:	e2800c0a 	add	r0, r0, #2560	; 0xa00
    8b88:	e1c010b0 	strh	r1, [r0]
    8b8c:	e2800c0a 	add	r0, r0, #2560	; 0xa00
    8b90:	e1c010b0 	strh	r1, [r0]
    8b94:	e2800c0a 	add	r0, r0, #2560	; 0xa00
    8b98:	e1c010b0 	strh	r1, [r0]
    8b9c:	e2800c0a 	add	r0, r0, #2560	; 0xa00
    8ba0:	e1c010b0 	strh	r1, [r0]
    8ba4:	e2800c0a 	add	r0, r0, #2560	; 0xa00
    8ba8:	e1c010b0 	strh	r1, [r0]
    8bac:	e2800c0a 	add	r0, r0, #2560	; 0xa00
    8bb0:	e1c010b0 	strh	r1, [r0]
    8bb4:	e1c010b2 	strh	r1, [r0, #2]
    8bb8:	e1c010b4 	strh	r1, [r0, #4]
    8bbc:	e1c010b6 	strh	r1, [r0, #6]
    8bc0:	e1c010b8 	strh	r1, [r0, #8]
    8bc4:	e1c010ba 	strh	r1, [r0, #10]
    8bc8:	e1c010bc 	strh	r1, [r0, #12]
    8bcc:	e1c010be 	strh	r1, [r0, #14]
    8bd0:	e1c011b0 	strh	r1, [r0, #16]
    8bd4:	e2822014 	add	r2, r2, #20
    8bd8:	e5832000 	str	r2, [r3]
    8bdc:	e8bd001f 	pop	{r0, r1, r2, r3, r4}
    8be0:	e1a0f00e 	mov	pc, lr
    8be4:	0000b030 	.word	0x0000b030
    8be8:	0000b02c 	.word	0x0000b02c
    8bec:	0000b034 	.word	0x0000b034
    8bf0:	0000b028 	.word	0x0000b028
    8bf4:	0000b038 	.word	0x0000b038

00008bf8 <print_D>:
    8bf8:	e92d001f 	push	{r0, r1, r2, r3, r4}
    8bfc:	e59f311c 	ldr	r3, [pc, #284]	; 8d20 <proceed_print_D+0xb8>
    8c00:	e5930000 	ldr	r0, [r3]
    8c04:	e1a02000 	mov	r2, r0
    8c08:	e59f4114 	ldr	r4, [pc, #276]	; 8d24 <proceed_print_D+0xbc>
    8c0c:	e5944000 	ldr	r4, [r4]
    8c10:	e1500004 	cmp	r0, r4
    8c14:	1a000013 	bne	8c68 <proceed_print_D>
    8c18:	e2422c0a 	sub	r2, r2, #2560	; 0xa00
    8c1c:	e92d001f 	push	{r0, r1, r2, r3, r4}
    8c20:	e59f0100 	ldr	r0, [pc, #256]	; 8d28 <proceed_print_D+0xc0>
    8c24:	e5900000 	ldr	r0, [r0]
    8c28:	e59f30fc 	ldr	r3, [pc, #252]	; 8d2c <proceed_print_D+0xc4>
    8c2c:	e5933000 	ldr	r3, [r3]
    8c30:	e3a01b19 	mov	r1, #25600	; 0x6400

00008c34 <newline_D_loop>:
    8c34:	e7902001 	ldr	r2, [r0, r1]
    8c38:	e5802000 	str	r2, [r0]
    8c3c:	e2800004 	add	r0, r0, #4
    8c40:	e1500003 	cmp	r0, r3
    8c44:	bafffffa 	blt	8c34 <newline_D_loop>
    8c48:	e3a02000 	mov	r2, #0
    8c4c:	e59f30dc 	ldr	r3, [pc, #220]	; 8d30 <proceed_print_D+0xc8>
    8c50:	e5933000 	ldr	r3, [r3]

00008c54 <make_D_black_loop>:
    8c54:	e5802000 	str	r2, [r0]
    8c58:	e2800004 	add	r0, r0, #4
    8c5c:	e1500003 	cmp	r0, r3
    8c60:	bafffffb 	blt	8c54 <make_D_black_loop>
    8c64:	e8bd001f 	pop	{r0, r1, r2, r3, r4}

00008c68 <proceed_print_D>:
    8c68:	e3e014ff 	mvn	r1, #-16777216	; 0xff000000
    8c6c:	e1c010b0 	strh	r1, [r0]
    8c70:	e1c010b2 	strh	r1, [r0, #2]
    8c74:	e1c010b4 	strh	r1, [r0, #4]
    8c78:	e1c010b6 	strh	r1, [r0, #6]
    8c7c:	e1c010b8 	strh	r1, [r0, #8]
    8c80:	e2800c0a 	add	r0, r0, #2560	; 0xa00
    8c84:	e1c010b0 	strh	r1, [r0]
    8c88:	e1c010b6 	strh	r1, [r0, #6]
    8c8c:	e1c010b8 	strh	r1, [r0, #8]
    8c90:	e2800c0a 	add	r0, r0, #2560	; 0xa00
    8c94:	e1c010b0 	strh	r1, [r0]
    8c98:	e1c010ba 	strh	r1, [r0, #10]
    8c9c:	e1c010bc 	strh	r1, [r0, #12]
    8ca0:	e1c010be 	strh	r1, [r0, #14]
    8ca4:	e2800c0a 	add	r0, r0, #2560	; 0xa00
    8ca8:	e1c010b0 	strh	r1, [r0]
    8cac:	e1c010be 	strh	r1, [r0, #14]
    8cb0:	e1c011b0 	strh	r1, [r0, #16]
    8cb4:	e2800c0a 	add	r0, r0, #2560	; 0xa00
    8cb8:	e1c010b0 	strh	r1, [r0]
    8cbc:	e1c011b0 	strh	r1, [r0, #16]
    8cc0:	e2800c0a 	add	r0, r0, #2560	; 0xa00
    8cc4:	e1c010b0 	strh	r1, [r0]
    8cc8:	e1c010be 	strh	r1, [r0, #14]
    8ccc:	e1c011b0 	strh	r1, [r0, #16]
    8cd0:	e2800c0a 	add	r0, r0, #2560	; 0xa00
    8cd4:	e1c010b0 	strh	r1, [r0]
    8cd8:	e1c010ba 	strh	r1, [r0, #10]
    8cdc:	e1c010bc 	strh	r1, [r0, #12]
    8ce0:	e1c010be 	strh	r1, [r0, #14]
    8ce4:	e2800c0a 	add	r0, r0, #2560	; 0xa00
    8ce8:	e1c010b0 	strh	r1, [r0]
    8cec:	e1c010b6 	strh	r1, [r0, #6]
    8cf0:	e1c010b8 	strh	r1, [r0, #8]
    8cf4:	e1c010ba 	strh	r1, [r0, #10]
    8cf8:	e2800c0a 	add	r0, r0, #2560	; 0xa00
    8cfc:	e1c010b0 	strh	r1, [r0]
    8d00:	e1c010b2 	strh	r1, [r0, #2]
    8d04:	e1c010b4 	strh	r1, [r0, #4]
    8d08:	e1c010b6 	strh	r1, [r0, #6]
    8d0c:	e1c010b8 	strh	r1, [r0, #8]
    8d10:	e2822014 	add	r2, r2, #20
    8d14:	e5832000 	str	r2, [r3]
    8d18:	e8bd001f 	pop	{r0, r1, r2, r3, r4}
    8d1c:	e1a0f00e 	mov	pc, lr
    8d20:	0000b030 	.word	0x0000b030
    8d24:	0000b02c 	.word	0x0000b02c
    8d28:	0000b034 	.word	0x0000b034
    8d2c:	0000b028 	.word	0x0000b028
    8d30:	0000b038 	.word	0x0000b038

00008d34 <print_E>:
    8d34:	e92d001f 	push	{r0, r1, r2, r3, r4}
    8d38:	e59f3118 	ldr	r3, [pc, #280]	; 8e58 <proceed_print_E+0xb4>
    8d3c:	e5930000 	ldr	r0, [r3]
    8d40:	e1a02000 	mov	r2, r0
    8d44:	e59f4110 	ldr	r4, [pc, #272]	; 8e5c <proceed_print_E+0xb8>
    8d48:	e5944000 	ldr	r4, [r4]
    8d4c:	e1500004 	cmp	r0, r4
    8d50:	1a000013 	bne	8da4 <proceed_print_E>
    8d54:	e2422c0a 	sub	r2, r2, #2560	; 0xa00
    8d58:	e92d001f 	push	{r0, r1, r2, r3, r4}
    8d5c:	e59f00fc 	ldr	r0, [pc, #252]	; 8e60 <proceed_print_E+0xbc>
    8d60:	e5900000 	ldr	r0, [r0]
    8d64:	e59f30f8 	ldr	r3, [pc, #248]	; 8e64 <proceed_print_E+0xc0>
    8d68:	e5933000 	ldr	r3, [r3]
    8d6c:	e3a01b19 	mov	r1, #25600	; 0x6400

00008d70 <newline_E_loop>:
    8d70:	e7902001 	ldr	r2, [r0, r1]
    8d74:	e5802000 	str	r2, [r0]
    8d78:	e2800004 	add	r0, r0, #4
    8d7c:	e1500003 	cmp	r0, r3
    8d80:	bafffffa 	blt	8d70 <newline_E_loop>
    8d84:	e3a02000 	mov	r2, #0
    8d88:	e59f30d8 	ldr	r3, [pc, #216]	; 8e68 <proceed_print_E+0xc4>
    8d8c:	e5933000 	ldr	r3, [r3]

00008d90 <make_E_black_loop>:
    8d90:	e5802000 	str	r2, [r0]
    8d94:	e2800004 	add	r0, r0, #4
    8d98:	e1500003 	cmp	r0, r3
    8d9c:	bafffffb 	blt	8d90 <make_E_black_loop>
    8da0:	e8bd001f 	pop	{r0, r1, r2, r3, r4}

00008da4 <proceed_print_E>:
    8da4:	e3e014ff 	mvn	r1, #-16777216	; 0xff000000
    8da8:	e1c010b0 	strh	r1, [r0]
    8dac:	e1c010b2 	strh	r1, [r0, #2]
    8db0:	e1c010b4 	strh	r1, [r0, #4]
    8db4:	e1c010b6 	strh	r1, [r0, #6]
    8db8:	e1c010b8 	strh	r1, [r0, #8]
    8dbc:	e1c010ba 	strh	r1, [r0, #10]
    8dc0:	e1c010bc 	strh	r1, [r0, #12]
    8dc4:	e1c010be 	strh	r1, [r0, #14]
    8dc8:	e1c011b0 	strh	r1, [r0, #16]
    8dcc:	e2800c0a 	add	r0, r0, #2560	; 0xa00
    8dd0:	e1c010b0 	strh	r1, [r0]
    8dd4:	e2800c0a 	add	r0, r0, #2560	; 0xa00
    8dd8:	e1c010b0 	strh	r1, [r0]
    8ddc:	e2800c0a 	add	r0, r0, #2560	; 0xa00
    8de0:	e1c010b0 	strh	r1, [r0]
    8de4:	e2800c0a 	add	r0, r0, #2560	; 0xa00
    8de8:	e1c010b0 	strh	r1, [r0]
    8dec:	e1c010b2 	strh	r1, [r0, #2]
    8df0:	e1c010b4 	strh	r1, [r0, #4]
    8df4:	e1c010b6 	strh	r1, [r0, #6]
    8df8:	e1c010b8 	strh	r1, [r0, #8]
    8dfc:	e1c010ba 	strh	r1, [r0, #10]
    8e00:	e1c010bc 	strh	r1, [r0, #12]
    8e04:	e1c010be 	strh	r1, [r0, #14]
    8e08:	e2800c0a 	add	r0, r0, #2560	; 0xa00
    8e0c:	e1c010b0 	strh	r1, [r0]
    8e10:	e2800c0a 	add	r0, r0, #2560	; 0xa00
    8e14:	e1c010b0 	strh	r1, [r0]
    8e18:	e2800c0a 	add	r0, r0, #2560	; 0xa00
    8e1c:	e1c010b0 	strh	r1, [r0]
    8e20:	e2800c0a 	add	r0, r0, #2560	; 0xa00
    8e24:	e1c010b0 	strh	r1, [r0]
    8e28:	e1c010b2 	strh	r1, [r0, #2]
    8e2c:	e1c010b4 	strh	r1, [r0, #4]
    8e30:	e1c010b6 	strh	r1, [r0, #6]
    8e34:	e1c010b8 	strh	r1, [r0, #8]
    8e38:	e1c010ba 	strh	r1, [r0, #10]
    8e3c:	e1c010bc 	strh	r1, [r0, #12]
    8e40:	e1c010be 	strh	r1, [r0, #14]
    8e44:	e1c011b0 	strh	r1, [r0, #16]
    8e48:	e2822014 	add	r2, r2, #20
    8e4c:	e5832000 	str	r2, [r3]
    8e50:	e8bd001f 	pop	{r0, r1, r2, r3, r4}
    8e54:	e1a0f00e 	mov	pc, lr
    8e58:	0000b030 	.word	0x0000b030
    8e5c:	0000b02c 	.word	0x0000b02c
    8e60:	0000b034 	.word	0x0000b034
    8e64:	0000b028 	.word	0x0000b028
    8e68:	0000b038 	.word	0x0000b038

00008e6c <print_F>:
    8e6c:	e92d001f 	push	{r0, r1, r2, r3, r4}
    8e70:	e59f30f8 	ldr	r3, [pc, #248]	; 8f70 <proceed_print_F+0x94>
    8e74:	e5930000 	ldr	r0, [r3]
    8e78:	e1a02000 	mov	r2, r0
    8e7c:	e59f40f0 	ldr	r4, [pc, #240]	; 8f74 <proceed_print_F+0x98>
    8e80:	e5944000 	ldr	r4, [r4]
    8e84:	e1500004 	cmp	r0, r4
    8e88:	1a000013 	bne	8edc <proceed_print_F>
    8e8c:	e2422c0a 	sub	r2, r2, #2560	; 0xa00
    8e90:	e92d001f 	push	{r0, r1, r2, r3, r4}
    8e94:	e59f00dc 	ldr	r0, [pc, #220]	; 8f78 <proceed_print_F+0x9c>
    8e98:	e5900000 	ldr	r0, [r0]
    8e9c:	e59f30d8 	ldr	r3, [pc, #216]	; 8f7c <proceed_print_F+0xa0>
    8ea0:	e5933000 	ldr	r3, [r3]
    8ea4:	e3a01b19 	mov	r1, #25600	; 0x6400

00008ea8 <newline_F_loop>:
    8ea8:	e7902001 	ldr	r2, [r0, r1]
    8eac:	e5802000 	str	r2, [r0]
    8eb0:	e2800004 	add	r0, r0, #4
    8eb4:	e1500003 	cmp	r0, r3
    8eb8:	bafffffa 	blt	8ea8 <newline_F_loop>
    8ebc:	e3a02000 	mov	r2, #0
    8ec0:	e59f30b8 	ldr	r3, [pc, #184]	; 8f80 <proceed_print_F+0xa4>
    8ec4:	e5933000 	ldr	r3, [r3]

00008ec8 <make_F_black_loop>:
    8ec8:	e5802000 	str	r2, [r0]
    8ecc:	e2800004 	add	r0, r0, #4
    8ed0:	e1500003 	cmp	r0, r3
    8ed4:	bafffffb 	blt	8ec8 <make_F_black_loop>
    8ed8:	e8bd001f 	pop	{r0, r1, r2, r3, r4}

00008edc <proceed_print_F>:
    8edc:	e3e014ff 	mvn	r1, #-16777216	; 0xff000000
    8ee0:	e1c010b0 	strh	r1, [r0]
    8ee4:	e1c010b2 	strh	r1, [r0, #2]
    8ee8:	e1c010b4 	strh	r1, [r0, #4]
    8eec:	e1c010b6 	strh	r1, [r0, #6]
    8ef0:	e1c010b8 	strh	r1, [r0, #8]
    8ef4:	e1c010ba 	strh	r1, [r0, #10]
    8ef8:	e1c010bc 	strh	r1, [r0, #12]
    8efc:	e1c010be 	strh	r1, [r0, #14]
    8f00:	e1c011b0 	strh	r1, [r0, #16]
    8f04:	e2800c0a 	add	r0, r0, #2560	; 0xa00
    8f08:	e1c010b0 	strh	r1, [r0]
    8f0c:	e2800c0a 	add	r0, r0, #2560	; 0xa00
    8f10:	e1c010b0 	strh	r1, [r0]
    8f14:	e2800c0a 	add	r0, r0, #2560	; 0xa00
    8f18:	e1c010b0 	strh	r1, [r0]
    8f1c:	e2800c0a 	add	r0, r0, #2560	; 0xa00
    8f20:	e1c010b0 	strh	r1, [r0]
    8f24:	e1c010b2 	strh	r1, [r0, #2]
    8f28:	e1c010b4 	strh	r1, [r0, #4]
    8f2c:	e1c010b6 	strh	r1, [r0, #6]
    8f30:	e1c010b8 	strh	r1, [r0, #8]
    8f34:	e1c010ba 	strh	r1, [r0, #10]
    8f38:	e1c010bc 	strh	r1, [r0, #12]
    8f3c:	e1c010be 	strh	r1, [r0, #14]
    8f40:	e2800c0a 	add	r0, r0, #2560	; 0xa00
    8f44:	e1c010b0 	strh	r1, [r0]
    8f48:	e2800c0a 	add	r0, r0, #2560	; 0xa00
    8f4c:	e1c010b0 	strh	r1, [r0]
    8f50:	e2800c0a 	add	r0, r0, #2560	; 0xa00
    8f54:	e1c010b0 	strh	r1, [r0]
    8f58:	e2800c0a 	add	r0, r0, #2560	; 0xa00
    8f5c:	e1c010b0 	strh	r1, [r0]
    8f60:	e2822014 	add	r2, r2, #20
    8f64:	e5832000 	str	r2, [r3]
    8f68:	e8bd001f 	pop	{r0, r1, r2, r3, r4}
    8f6c:	e1a0f00e 	mov	pc, lr
    8f70:	0000b030 	.word	0x0000b030
    8f74:	0000b02c 	.word	0x0000b02c
    8f78:	0000b034 	.word	0x0000b034
    8f7c:	0000b028 	.word	0x0000b028
    8f80:	0000b038 	.word	0x0000b038

00008f84 <print_G>:
    8f84:	e92d001f 	push	{r0, r1, r2, r3, r4}
    8f88:	e59f3118 	ldr	r3, [pc, #280]	; 90a8 <proceed_print_G+0xb4>
    8f8c:	e5930000 	ldr	r0, [r3]
    8f90:	e1a02000 	mov	r2, r0
    8f94:	e59f4110 	ldr	r4, [pc, #272]	; 90ac <proceed_print_G+0xb8>
    8f98:	e5944000 	ldr	r4, [r4]
    8f9c:	e1500004 	cmp	r0, r4
    8fa0:	1a000013 	bne	8ff4 <proceed_print_G>
    8fa4:	e2422c0a 	sub	r2, r2, #2560	; 0xa00
    8fa8:	e92d001f 	push	{r0, r1, r2, r3, r4}
    8fac:	e59f00fc 	ldr	r0, [pc, #252]	; 90b0 <proceed_print_G+0xbc>
    8fb0:	e5900000 	ldr	r0, [r0]
    8fb4:	e59f30f8 	ldr	r3, [pc, #248]	; 90b4 <proceed_print_G+0xc0>
    8fb8:	e5933000 	ldr	r3, [r3]
    8fbc:	e3a01b19 	mov	r1, #25600	; 0x6400

00008fc0 <newline_G_loop>:
    8fc0:	e7902001 	ldr	r2, [r0, r1]
    8fc4:	e5802000 	str	r2, [r0]
    8fc8:	e2800004 	add	r0, r0, #4
    8fcc:	e1500003 	cmp	r0, r3
    8fd0:	bafffffa 	blt	8fc0 <newline_G_loop>
    8fd4:	e3a02000 	mov	r2, #0
    8fd8:	e59f30d8 	ldr	r3, [pc, #216]	; 90b8 <proceed_print_G+0xc4>
    8fdc:	e5933000 	ldr	r3, [r3]

00008fe0 <make_G_black_loop>:
    8fe0:	e5802000 	str	r2, [r0]
    8fe4:	e2800004 	add	r0, r0, #4
    8fe8:	e1500003 	cmp	r0, r3
    8fec:	bafffffb 	blt	8fe0 <make_G_black_loop>
    8ff0:	e8bd001f 	pop	{r0, r1, r2, r3, r4}

00008ff4 <proceed_print_G>:
    8ff4:	e3e014ff 	mvn	r1, #-16777216	; 0xff000000
    8ff8:	e1c010b0 	strh	r1, [r0]
    8ffc:	e1c010b2 	strh	r1, [r0, #2]
    9000:	e1c010b4 	strh	r1, [r0, #4]
    9004:	e1c010b6 	strh	r1, [r0, #6]
    9008:	e1c010b8 	strh	r1, [r0, #8]
    900c:	e1c010ba 	strh	r1, [r0, #10]
    9010:	e1c010bc 	strh	r1, [r0, #12]
    9014:	e1c010be 	strh	r1, [r0, #14]
    9018:	e1c011b0 	strh	r1, [r0, #16]
    901c:	e2800c0a 	add	r0, r0, #2560	; 0xa00
    9020:	e1c010b0 	strh	r1, [r0]
    9024:	e2800c0a 	add	r0, r0, #2560	; 0xa00
    9028:	e1c010b0 	strh	r1, [r0]
    902c:	e2800c0a 	add	r0, r0, #2560	; 0xa00
    9030:	e1c010b0 	strh	r1, [r0]
    9034:	e2800c0a 	add	r0, r0, #2560	; 0xa00
    9038:	e1c010b0 	strh	r1, [r0]
    903c:	e1c010ba 	strh	r1, [r0, #10]
    9040:	e1c010bc 	strh	r1, [r0, #12]
    9044:	e1c010be 	strh	r1, [r0, #14]
    9048:	e1c011b0 	strh	r1, [r0, #16]
    904c:	e2800c0a 	add	r0, r0, #2560	; 0xa00
    9050:	e1c010b0 	strh	r1, [r0]
    9054:	e1c011b0 	strh	r1, [r0, #16]
    9058:	e2800c0a 	add	r0, r0, #2560	; 0xa00
    905c:	e1c010b0 	strh	r1, [r0]
    9060:	e1c011b0 	strh	r1, [r0, #16]
    9064:	e2800c0a 	add	r0, r0, #2560	; 0xa00
    9068:	e1c010b0 	strh	r1, [r0]
    906c:	e1c011b0 	strh	r1, [r0, #16]
    9070:	e2800c0a 	add	r0, r0, #2560	; 0xa00
    9074:	e1c010b0 	strh	r1, [r0]
    9078:	e1c010b2 	strh	r1, [r0, #2]
    907c:	e1c010b4 	strh	r1, [r0, #4]
    9080:	e1c010b6 	strh	r1, [r0, #6]
    9084:	e1c010b8 	strh	r1, [r0, #8]
    9088:	e1c010ba 	strh	r1, [r0, #10]
    908c:	e1c010bc 	strh	r1, [r0, #12]
    9090:	e1c010be 	strh	r1, [r0, #14]
    9094:	e1c011b0 	strh	r1, [r0, #16]
    9098:	e2822014 	add	r2, r2, #20
    909c:	e5832000 	str	r2, [r3]
    90a0:	e8bd001f 	pop	{r0, r1, r2, r3, r4}
    90a4:	e1a0f00e 	mov	pc, lr
    90a8:	0000b030 	.word	0x0000b030
    90ac:	0000b02c 	.word	0x0000b02c
    90b0:	0000b034 	.word	0x0000b034
    90b4:	0000b028 	.word	0x0000b028
    90b8:	0000b038 	.word	0x0000b038

000090bc <print_H>:
    90bc:	e92d001f 	push	{r0, r1, r2, r3, r4}
    90c0:	e59f30fc 	ldr	r3, [pc, #252]	; 91c4 <proceed_print_H+0x98>
    90c4:	e5930000 	ldr	r0, [r3]
    90c8:	e1a02000 	mov	r2, r0
    90cc:	e59f40f4 	ldr	r4, [pc, #244]	; 91c8 <proceed_print_H+0x9c>
    90d0:	e5944000 	ldr	r4, [r4]
    90d4:	e1500004 	cmp	r0, r4
    90d8:	1a000013 	bne	912c <proceed_print_H>
    90dc:	e2422c0a 	sub	r2, r2, #2560	; 0xa00
    90e0:	e92d001f 	push	{r0, r1, r2, r3, r4}
    90e4:	e59f00e0 	ldr	r0, [pc, #224]	; 91cc <proceed_print_H+0xa0>
    90e8:	e5900000 	ldr	r0, [r0]
    90ec:	e59f30dc 	ldr	r3, [pc, #220]	; 91d0 <proceed_print_H+0xa4>
    90f0:	e5933000 	ldr	r3, [r3]
    90f4:	e3a01b19 	mov	r1, #25600	; 0x6400

000090f8 <newline_H_loop>:
    90f8:	e7902001 	ldr	r2, [r0, r1]
    90fc:	e5802000 	str	r2, [r0]
    9100:	e2800004 	add	r0, r0, #4
    9104:	e1500003 	cmp	r0, r3
    9108:	bafffffa 	blt	90f8 <newline_H_loop>
    910c:	e3a02000 	mov	r2, #0
    9110:	e59f30bc 	ldr	r3, [pc, #188]	; 91d4 <proceed_print_H+0xa8>
    9114:	e5933000 	ldr	r3, [r3]

00009118 <make_H_black_loop>:
    9118:	e5802000 	str	r2, [r0]
    911c:	e2800004 	add	r0, r0, #4
    9120:	e1500003 	cmp	r0, r3
    9124:	bafffffb 	blt	9118 <make_H_black_loop>
    9128:	e8bd001f 	pop	{r0, r1, r2, r3, r4}

0000912c <proceed_print_H>:
    912c:	e3e014ff 	mvn	r1, #-16777216	; 0xff000000
    9130:	e1c010b0 	strh	r1, [r0]
    9134:	e1c011b0 	strh	r1, [r0, #16]
    9138:	e2800c0a 	add	r0, r0, #2560	; 0xa00
    913c:	e1c010b0 	strh	r1, [r0]
    9140:	e1c011b0 	strh	r1, [r0, #16]
    9144:	e2800c0a 	add	r0, r0, #2560	; 0xa00
    9148:	e1c010b0 	strh	r1, [r0]
    914c:	e1c011b0 	strh	r1, [r0, #16]
    9150:	e2800c0a 	add	r0, r0, #2560	; 0xa00
    9154:	e1c010b0 	strh	r1, [r0]
    9158:	e1c011b0 	strh	r1, [r0, #16]
    915c:	e2800c0a 	add	r0, r0, #2560	; 0xa00
    9160:	e1c010b0 	strh	r1, [r0]
    9164:	e1c010b2 	strh	r1, [r0, #2]
    9168:	e1c010b4 	strh	r1, [r0, #4]
    916c:	e1c010b6 	strh	r1, [r0, #6]
    9170:	e1c010b8 	strh	r1, [r0, #8]
    9174:	e1c010ba 	strh	r1, [r0, #10]
    9178:	e1c010bc 	strh	r1, [r0, #12]
    917c:	e1c010be 	strh	r1, [r0, #14]
    9180:	e1c011b0 	strh	r1, [r0, #16]
    9184:	e2800c0a 	add	r0, r0, #2560	; 0xa00
    9188:	e1c010b0 	strh	r1, [r0]
    918c:	e1c011b0 	strh	r1, [r0, #16]
    9190:	e2800c0a 	add	r0, r0, #2560	; 0xa00
    9194:	e1c010b0 	strh	r1, [r0]
    9198:	e1c011b0 	strh	r1, [r0, #16]
    919c:	e2800c0a 	add	r0, r0, #2560	; 0xa00
    91a0:	e1c010b0 	strh	r1, [r0]
    91a4:	e1c011b0 	strh	r1, [r0, #16]
    91a8:	e2800c0a 	add	r0, r0, #2560	; 0xa00
    91ac:	e1c010b0 	strh	r1, [r0]
    91b0:	e1c011b0 	strh	r1, [r0, #16]
    91b4:	e2822014 	add	r2, r2, #20
    91b8:	e5832000 	str	r2, [r3]
    91bc:	e8bd001f 	pop	{r0, r1, r2, r3, r4}
    91c0:	e1a0f00e 	mov	pc, lr
    91c4:	0000b030 	.word	0x0000b030
    91c8:	0000b02c 	.word	0x0000b02c
    91cc:	0000b034 	.word	0x0000b034
    91d0:	0000b028 	.word	0x0000b028
    91d4:	0000b038 	.word	0x0000b038

000091d8 <print_I>:
    91d8:	e92d001f 	push	{r0, r1, r2, r3, r4}
    91dc:	e59f30fc 	ldr	r3, [pc, #252]	; 92e0 <proceed_print_I+0x98>
    91e0:	e5930000 	ldr	r0, [r3]
    91e4:	e1a02000 	mov	r2, r0
    91e8:	e59f40f4 	ldr	r4, [pc, #244]	; 92e4 <proceed_print_I+0x9c>
    91ec:	e5944000 	ldr	r4, [r4]
    91f0:	e1500004 	cmp	r0, r4
    91f4:	1a000013 	bne	9248 <proceed_print_I>
    91f8:	e2422c0a 	sub	r2, r2, #2560	; 0xa00
    91fc:	e92d001f 	push	{r0, r1, r2, r3, r4}
    9200:	e59f00e0 	ldr	r0, [pc, #224]	; 92e8 <proceed_print_I+0xa0>
    9204:	e5900000 	ldr	r0, [r0]
    9208:	e59f30dc 	ldr	r3, [pc, #220]	; 92ec <proceed_print_I+0xa4>
    920c:	e5933000 	ldr	r3, [r3]
    9210:	e3a01b19 	mov	r1, #25600	; 0x6400

00009214 <newline_I_loop>:
    9214:	e7902001 	ldr	r2, [r0, r1]
    9218:	e5802000 	str	r2, [r0]
    921c:	e2800004 	add	r0, r0, #4
    9220:	e1500003 	cmp	r0, r3
    9224:	bafffffa 	blt	9214 <newline_I_loop>
    9228:	e3a02000 	mov	r2, #0
    922c:	e59f30bc 	ldr	r3, [pc, #188]	; 92f0 <proceed_print_I+0xa8>
    9230:	e5933000 	ldr	r3, [r3]

00009234 <make_I_black_loop>:
    9234:	e5802000 	str	r2, [r0]
    9238:	e2800004 	add	r0, r0, #4
    923c:	e1500003 	cmp	r0, r3
    9240:	bafffffb 	blt	9234 <make_I_black_loop>
    9244:	e8bd001f 	pop	{r0, r1, r2, r3, r4}

00009248 <proceed_print_I>:
    9248:	e3e014ff 	mvn	r1, #-16777216	; 0xff000000
    924c:	e1c010b0 	strh	r1, [r0]
    9250:	e1c010b2 	strh	r1, [r0, #2]
    9254:	e1c010b4 	strh	r1, [r0, #4]
    9258:	e1c010b6 	strh	r1, [r0, #6]
    925c:	e1c010b8 	strh	r1, [r0, #8]
    9260:	e1c010ba 	strh	r1, [r0, #10]
    9264:	e1c010bc 	strh	r1, [r0, #12]
    9268:	e1c010be 	strh	r1, [r0, #14]
    926c:	e1c011b0 	strh	r1, [r0, #16]
    9270:	e2800c0a 	add	r0, r0, #2560	; 0xa00
    9274:	e1c010b8 	strh	r1, [r0, #8]
    9278:	e2800c0a 	add	r0, r0, #2560	; 0xa00
    927c:	e1c010b8 	strh	r1, [r0, #8]
    9280:	e2800c0a 	add	r0, r0, #2560	; 0xa00
    9284:	e1c010b8 	strh	r1, [r0, #8]
    9288:	e2800c0a 	add	r0, r0, #2560	; 0xa00
    928c:	e1c010b8 	strh	r1, [r0, #8]
    9290:	e2800c0a 	add	r0, r0, #2560	; 0xa00
    9294:	e1c010b8 	strh	r1, [r0, #8]
    9298:	e2800c0a 	add	r0, r0, #2560	; 0xa00
    929c:	e1c010b8 	strh	r1, [r0, #8]
    92a0:	e2800c0a 	add	r0, r0, #2560	; 0xa00
    92a4:	e1c010b8 	strh	r1, [r0, #8]
    92a8:	e2800c0a 	add	r0, r0, #2560	; 0xa00
    92ac:	e1c010b0 	strh	r1, [r0]
    92b0:	e1c010b2 	strh	r1, [r0, #2]
    92b4:	e1c010b4 	strh	r1, [r0, #4]
    92b8:	e1c010b6 	strh	r1, [r0, #6]
    92bc:	e1c010b8 	strh	r1, [r0, #8]
    92c0:	e1c010ba 	strh	r1, [r0, #10]
    92c4:	e1c010bc 	strh	r1, [r0, #12]
    92c8:	e1c010be 	strh	r1, [r0, #14]
    92cc:	e1c011b0 	strh	r1, [r0, #16]
    92d0:	e2822014 	add	r2, r2, #20
    92d4:	e5832000 	str	r2, [r3]
    92d8:	e8bd001f 	pop	{r0, r1, r2, r3, r4}
    92dc:	e1a0f00e 	mov	pc, lr
    92e0:	0000b030 	.word	0x0000b030
    92e4:	0000b02c 	.word	0x0000b02c
    92e8:	0000b034 	.word	0x0000b034
    92ec:	0000b028 	.word	0x0000b028
    92f0:	0000b038 	.word	0x0000b038

000092f4 <print_K>:
    92f4:	e92d001f 	push	{r0, r1, r2, r3, r4}
    92f8:	e59f3120 	ldr	r3, [pc, #288]	; 9420 <proceed_print_K+0xbc>
    92fc:	e5930000 	ldr	r0, [r3]
    9300:	e1a02000 	mov	r2, r0
    9304:	e59f4118 	ldr	r4, [pc, #280]	; 9424 <proceed_print_K+0xc0>
    9308:	e5944000 	ldr	r4, [r4]
    930c:	e1500004 	cmp	r0, r4
    9310:	1a000013 	bne	9364 <proceed_print_K>
    9314:	e2422c0a 	sub	r2, r2, #2560	; 0xa00
    9318:	e92d001f 	push	{r0, r1, r2, r3, r4}
    931c:	e59f0104 	ldr	r0, [pc, #260]	; 9428 <proceed_print_K+0xc4>
    9320:	e5900000 	ldr	r0, [r0]
    9324:	e59f3100 	ldr	r3, [pc, #256]	; 942c <proceed_print_K+0xc8>
    9328:	e5933000 	ldr	r3, [r3]
    932c:	e3a01b19 	mov	r1, #25600	; 0x6400

00009330 <newline_K_loop>:
    9330:	e7902001 	ldr	r2, [r0, r1]
    9334:	e5802000 	str	r2, [r0]
    9338:	e2800004 	add	r0, r0, #4
    933c:	e1500003 	cmp	r0, r3
    9340:	bafffffa 	blt	9330 <newline_K_loop>
    9344:	e3a02000 	mov	r2, #0
    9348:	e59f30e0 	ldr	r3, [pc, #224]	; 9430 <proceed_print_K+0xcc>
    934c:	e5933000 	ldr	r3, [r3]

00009350 <make_K_black_loop>:
    9350:	e5802000 	str	r2, [r0]
    9354:	e2800004 	add	r0, r0, #4
    9358:	e1500003 	cmp	r0, r3
    935c:	bafffffb 	blt	9350 <make_K_black_loop>
    9360:	e8bd001f 	pop	{r0, r1, r2, r3, r4}

00009364 <proceed_print_K>:
    9364:	e3e014ff 	mvn	r1, #-16777216	; 0xff000000
    9368:	e1c010b0 	strh	r1, [r0]
    936c:	e1c010bc 	strh	r1, [r0, #12]
    9370:	e1c010be 	strh	r1, [r0, #14]
    9374:	e1c011b0 	strh	r1, [r0, #16]
    9378:	e2800c0a 	add	r0, r0, #2560	; 0xa00
    937c:	e1c010b0 	strh	r1, [r0]
    9380:	e1c010ba 	strh	r1, [r0, #10]
    9384:	e1c010bc 	strh	r1, [r0, #12]
    9388:	e1c010be 	strh	r1, [r0, #14]
    938c:	e2800c0a 	add	r0, r0, #2560	; 0xa00
    9390:	e1c010b0 	strh	r1, [r0]
    9394:	e1c010b8 	strh	r1, [r0, #8]
    9398:	e1c010ba 	strh	r1, [r0, #10]
    939c:	e2800c0a 	add	r0, r0, #2560	; 0xa00
    93a0:	e1c010b0 	strh	r1, [r0]
    93a4:	e1c010b4 	strh	r1, [r0, #4]
    93a8:	e1c010b6 	strh	r1, [r0, #6]
    93ac:	e1c010b8 	strh	r1, [r0, #8]
    93b0:	e2800c0a 	add	r0, r0, #2560	; 0xa00
    93b4:	e1c010b0 	strh	r1, [r0]
    93b8:	e1c010b2 	strh	r1, [r0, #2]
    93bc:	e1c010b4 	strh	r1, [r0, #4]
    93c0:	e1c010b6 	strh	r1, [r0, #6]
    93c4:	e2800c0a 	add	r0, r0, #2560	; 0xa00
    93c8:	e1c010b0 	strh	r1, [r0]
    93cc:	e1c010b4 	strh	r1, [r0, #4]
    93d0:	e1c010b6 	strh	r1, [r0, #6]
    93d4:	e1c010b8 	strh	r1, [r0, #8]
    93d8:	e2800c0a 	add	r0, r0, #2560	; 0xa00
    93dc:	e1c010b0 	strh	r1, [r0]
    93e0:	e1c010b8 	strh	r1, [r0, #8]
    93e4:	e1c010ba 	strh	r1, [r0, #10]
    93e8:	e2800c0a 	add	r0, r0, #2560	; 0xa00
    93ec:	e1c010b0 	strh	r1, [r0]
    93f0:	e1c010ba 	strh	r1, [r0, #10]
    93f4:	e1c010bc 	strh	r1, [r0, #12]
    93f8:	e1c010be 	strh	r1, [r0, #14]
    93fc:	e2800c0a 	add	r0, r0, #2560	; 0xa00
    9400:	e1c010b0 	strh	r1, [r0]
    9404:	e1c010bc 	strh	r1, [r0, #12]
    9408:	e1c010be 	strh	r1, [r0, #14]
    940c:	e1c011b0 	strh	r1, [r0, #16]
    9410:	e2822014 	add	r2, r2, #20
    9414:	e5832000 	str	r2, [r3]
    9418:	e8bd001f 	pop	{r0, r1, r2, r3, r4}
    941c:	e1a0f00e 	mov	pc, lr
    9420:	0000b030 	.word	0x0000b030
    9424:	0000b02c 	.word	0x0000b02c
    9428:	0000b034 	.word	0x0000b034
    942c:	0000b028 	.word	0x0000b028
    9430:	0000b038 	.word	0x0000b038

00009434 <print_L>:
    9434:	e92d001f 	push	{r0, r1, r2, r3, r4}
    9438:	e59f30dc 	ldr	r3, [pc, #220]	; 951c <proceed_print_L+0x78>
    943c:	e5930000 	ldr	r0, [r3]
    9440:	e1a02000 	mov	r2, r0
    9444:	e59f40d4 	ldr	r4, [pc, #212]	; 9520 <proceed_print_L+0x7c>
    9448:	e5944000 	ldr	r4, [r4]
    944c:	e1500004 	cmp	r0, r4
    9450:	1a000013 	bne	94a4 <proceed_print_L>
    9454:	e2422c0a 	sub	r2, r2, #2560	; 0xa00
    9458:	e92d001f 	push	{r0, r1, r2, r3, r4}
    945c:	e59f00c0 	ldr	r0, [pc, #192]	; 9524 <proceed_print_L+0x80>
    9460:	e5900000 	ldr	r0, [r0]
    9464:	e59f30bc 	ldr	r3, [pc, #188]	; 9528 <proceed_print_L+0x84>
    9468:	e5933000 	ldr	r3, [r3]
    946c:	e3a01b19 	mov	r1, #25600	; 0x6400

00009470 <newline_L_loop>:
    9470:	e7902001 	ldr	r2, [r0, r1]
    9474:	e5802000 	str	r2, [r0]
    9478:	e2800004 	add	r0, r0, #4
    947c:	e1500003 	cmp	r0, r3
    9480:	bafffffa 	blt	9470 <newline_L_loop>
    9484:	e3a02000 	mov	r2, #0
    9488:	e59f309c 	ldr	r3, [pc, #156]	; 952c <proceed_print_L+0x88>
    948c:	e5933000 	ldr	r3, [r3]

00009490 <make_L_black_loop>:
    9490:	e5802000 	str	r2, [r0]
    9494:	e2800004 	add	r0, r0, #4
    9498:	e1500003 	cmp	r0, r3
    949c:	bafffffb 	blt	9490 <make_L_black_loop>
    94a0:	e8bd001f 	pop	{r0, r1, r2, r3, r4}

000094a4 <proceed_print_L>:
    94a4:	e3e014ff 	mvn	r1, #-16777216	; 0xff000000
    94a8:	e1c010b0 	strh	r1, [r0]
    94ac:	e2800c0a 	add	r0, r0, #2560	; 0xa00
    94b0:	e1c010b0 	strh	r1, [r0]
    94b4:	e2800c0a 	add	r0, r0, #2560	; 0xa00
    94b8:	e1c010b0 	strh	r1, [r0]
    94bc:	e2800c0a 	add	r0, r0, #2560	; 0xa00
    94c0:	e1c010b0 	strh	r1, [r0]
    94c4:	e2800c0a 	add	r0, r0, #2560	; 0xa00
    94c8:	e1c010b0 	strh	r1, [r0]
    94cc:	e2800c0a 	add	r0, r0, #2560	; 0xa00
    94d0:	e1c010b0 	strh	r1, [r0]
    94d4:	e2800c0a 	add	r0, r0, #2560	; 0xa00
    94d8:	e1c010b0 	strh	r1, [r0]
    94dc:	e2800c0a 	add	r0, r0, #2560	; 0xa00
    94e0:	e1c010b0 	strh	r1, [r0]
    94e4:	e2800c0a 	add	r0, r0, #2560	; 0xa00
    94e8:	e1c010b0 	strh	r1, [r0]
    94ec:	e1c010b2 	strh	r1, [r0, #2]
    94f0:	e1c010b4 	strh	r1, [r0, #4]
    94f4:	e1c010b6 	strh	r1, [r0, #6]
    94f8:	e1c010b8 	strh	r1, [r0, #8]
    94fc:	e1c010ba 	strh	r1, [r0, #10]
    9500:	e1c010bc 	strh	r1, [r0, #12]
    9504:	e1c010be 	strh	r1, [r0, #14]
    9508:	e1c011b0 	strh	r1, [r0, #16]
    950c:	e2822014 	add	r2, r2, #20
    9510:	e5832000 	str	r2, [r3]
    9514:	e8bd001f 	pop	{r0, r1, r2, r3, r4}
    9518:	e1a0f00e 	mov	pc, lr
    951c:	0000b030 	.word	0x0000b030
    9520:	0000b02c 	.word	0x0000b02c
    9524:	0000b034 	.word	0x0000b034
    9528:	0000b028 	.word	0x0000b028
    952c:	0000b038 	.word	0x0000b038

00009530 <print_M>:
    9530:	e92d001f 	push	{r0, r1, r2, r3, r4}
    9534:	e59f3104 	ldr	r3, [pc, #260]	; 9640 <proceed_print_M+0xa0>
    9538:	e5930000 	ldr	r0, [r3]
    953c:	e1a02000 	mov	r2, r0
    9540:	e59f40fc 	ldr	r4, [pc, #252]	; 9644 <proceed_print_M+0xa4>
    9544:	e5944000 	ldr	r4, [r4]
    9548:	e1500004 	cmp	r0, r4
    954c:	1a000013 	bne	95a0 <proceed_print_M>
    9550:	e2422c0a 	sub	r2, r2, #2560	; 0xa00
    9554:	e92d001f 	push	{r0, r1, r2, r3, r4}
    9558:	e59f00e8 	ldr	r0, [pc, #232]	; 9648 <proceed_print_M+0xa8>
    955c:	e5900000 	ldr	r0, [r0]
    9560:	e59f30e4 	ldr	r3, [pc, #228]	; 964c <proceed_print_M+0xac>
    9564:	e5933000 	ldr	r3, [r3]
    9568:	e3a01b19 	mov	r1, #25600	; 0x6400

0000956c <newline_M_loop>:
    956c:	e7902001 	ldr	r2, [r0, r1]
    9570:	e5802000 	str	r2, [r0]
    9574:	e2800004 	add	r0, r0, #4
    9578:	e1500003 	cmp	r0, r3
    957c:	bafffffa 	blt	956c <newline_M_loop>
    9580:	e3a02000 	mov	r2, #0
    9584:	e59f30c4 	ldr	r3, [pc, #196]	; 9650 <proceed_print_M+0xb0>
    9588:	e5933000 	ldr	r3, [r3]

0000958c <make_M_black_loop>:
    958c:	e5802000 	str	r2, [r0]
    9590:	e2800004 	add	r0, r0, #4
    9594:	e1500003 	cmp	r0, r3
    9598:	bafffffb 	blt	958c <make_M_black_loop>
    959c:	e8bd001f 	pop	{r0, r1, r2, r3, r4}

000095a0 <proceed_print_M>:
    95a0:	e3e014ff 	mvn	r1, #-16777216	; 0xff000000
    95a4:	e1c010b0 	strh	r1, [r0]
    95a8:	e1c010b2 	strh	r1, [r0, #2]
    95ac:	e1c010be 	strh	r1, [r0, #14]
    95b0:	e1c011b0 	strh	r1, [r0, #16]
    95b4:	e2800c0a 	add	r0, r0, #2560	; 0xa00
    95b8:	e1c010b0 	strh	r1, [r0]
    95bc:	e1c010b4 	strh	r1, [r0, #4]
    95c0:	e1c010bc 	strh	r1, [r0, #12]
    95c4:	e1c011b0 	strh	r1, [r0, #16]
    95c8:	e2800c0a 	add	r0, r0, #2560	; 0xa00
    95cc:	e1c010b0 	strh	r1, [r0]
    95d0:	e1c010b4 	strh	r1, [r0, #4]
    95d4:	e1c010bc 	strh	r1, [r0, #12]
    95d8:	e1c011b0 	strh	r1, [r0, #16]
    95dc:	e2800c0a 	add	r0, r0, #2560	; 0xa00
    95e0:	e1c010b0 	strh	r1, [r0]
    95e4:	e1c010b6 	strh	r1, [r0, #6]
    95e8:	e1c010ba 	strh	r1, [r0, #10]
    95ec:	e1c011b0 	strh	r1, [r0, #16]
    95f0:	e2800c0a 	add	r0, r0, #2560	; 0xa00
    95f4:	e1c010b0 	strh	r1, [r0]
    95f8:	e1c010b8 	strh	r1, [r0, #8]
    95fc:	e1c011b0 	strh	r1, [r0, #16]
    9600:	e2800c0a 	add	r0, r0, #2560	; 0xa00
    9604:	e1c010b0 	strh	r1, [r0]
    9608:	e1c011b0 	strh	r1, [r0, #16]
    960c:	e2800c0a 	add	r0, r0, #2560	; 0xa00
    9610:	e1c010b0 	strh	r1, [r0]
    9614:	e1c011b0 	strh	r1, [r0, #16]
    9618:	e2800c0a 	add	r0, r0, #2560	; 0xa00
    961c:	e1c010b0 	strh	r1, [r0]
    9620:	e1c011b0 	strh	r1, [r0, #16]
    9624:	e2800c0a 	add	r0, r0, #2560	; 0xa00
    9628:	e1c010b0 	strh	r1, [r0]
    962c:	e1c011b0 	strh	r1, [r0, #16]
    9630:	e2822014 	add	r2, r2, #20
    9634:	e5832000 	str	r2, [r3]
    9638:	e8bd001f 	pop	{r0, r1, r2, r3, r4}
    963c:	e1a0f00e 	mov	pc, lr
    9640:	0000b030 	.word	0x0000b030
    9644:	0000b02c 	.word	0x0000b02c
    9648:	0000b034 	.word	0x0000b034
    964c:	0000b028 	.word	0x0000b028
    9650:	0000b038 	.word	0x0000b038

00009654 <print_N>:
    9654:	e92d001f 	push	{r0, r1, r2, r3, r4}
    9658:	e59f3100 	ldr	r3, [pc, #256]	; 9760 <proceed_print_N+0x9c>
    965c:	e5930000 	ldr	r0, [r3]
    9660:	e1a02000 	mov	r2, r0
    9664:	e59f40f8 	ldr	r4, [pc, #248]	; 9764 <proceed_print_N+0xa0>
    9668:	e5944000 	ldr	r4, [r4]
    966c:	e1500004 	cmp	r0, r4
    9670:	1a000013 	bne	96c4 <proceed_print_N>
    9674:	e2422c0a 	sub	r2, r2, #2560	; 0xa00
    9678:	e92d001f 	push	{r0, r1, r2, r3, r4}
    967c:	e59f00e4 	ldr	r0, [pc, #228]	; 9768 <proceed_print_N+0xa4>
    9680:	e5900000 	ldr	r0, [r0]
    9684:	e59f30e0 	ldr	r3, [pc, #224]	; 976c <proceed_print_N+0xa8>
    9688:	e5933000 	ldr	r3, [r3]
    968c:	e3a01b19 	mov	r1, #25600	; 0x6400

00009690 <newline_N_loop>:
    9690:	e7902001 	ldr	r2, [r0, r1]
    9694:	e5802000 	str	r2, [r0]
    9698:	e2800004 	add	r0, r0, #4
    969c:	e1500003 	cmp	r0, r3
    96a0:	bafffffa 	blt	9690 <newline_N_loop>
    96a4:	e3a02000 	mov	r2, #0
    96a8:	e59f30c0 	ldr	r3, [pc, #192]	; 9770 <proceed_print_N+0xac>
    96ac:	e5933000 	ldr	r3, [r3]

000096b0 <make_N_black_loop>:
    96b0:	e5802000 	str	r2, [r0]
    96b4:	e2800004 	add	r0, r0, #4
    96b8:	e1500003 	cmp	r0, r3
    96bc:	bafffffb 	blt	96b0 <make_N_black_loop>
    96c0:	e8bd001f 	pop	{r0, r1, r2, r3, r4}

000096c4 <proceed_print_N>:
    96c4:	e3e014ff 	mvn	r1, #-16777216	; 0xff000000
    96c8:	e1c010b0 	strh	r1, [r0]
    96cc:	e1c010b2 	strh	r1, [r0, #2]
    96d0:	e1c011b0 	strh	r1, [r0, #16]
    96d4:	e2800c0a 	add	r0, r0, #2560	; 0xa00
    96d8:	e1c010b0 	strh	r1, [r0]
    96dc:	e1c010b4 	strh	r1, [r0, #4]
    96e0:	e1c011b0 	strh	r1, [r0, #16]
    96e4:	e2800c0a 	add	r0, r0, #2560	; 0xa00
    96e8:	e1c010b0 	strh	r1, [r0]
    96ec:	e1c010b4 	strh	r1, [r0, #4]
    96f0:	e1c011b0 	strh	r1, [r0, #16]
    96f4:	e2800c0a 	add	r0, r0, #2560	; 0xa00
    96f8:	e1c010b0 	strh	r1, [r0]
    96fc:	e1c010b6 	strh	r1, [r0, #6]
    9700:	e1c011b0 	strh	r1, [r0, #16]
    9704:	e2800c0a 	add	r0, r0, #2560	; 0xa00
    9708:	e1c010b0 	strh	r1, [r0]
    970c:	e1c010b8 	strh	r1, [r0, #8]
    9710:	e1c011b0 	strh	r1, [r0, #16]
    9714:	e2800c0a 	add	r0, r0, #2560	; 0xa00
    9718:	e1c010b0 	strh	r1, [r0]
    971c:	e1c010ba 	strh	r1, [r0, #10]
    9720:	e1c011b0 	strh	r1, [r0, #16]
    9724:	e2800c0a 	add	r0, r0, #2560	; 0xa00
    9728:	e1c010b0 	strh	r1, [r0]
    972c:	e1c010bc 	strh	r1, [r0, #12]
    9730:	e1c011b0 	strh	r1, [r0, #16]
    9734:	e2800c0a 	add	r0, r0, #2560	; 0xa00
    9738:	e1c010b0 	strh	r1, [r0]
    973c:	e1c010be 	strh	r1, [r0, #14]
    9740:	e1c011b0 	strh	r1, [r0, #16]
    9744:	e2800c0a 	add	r0, r0, #2560	; 0xa00
    9748:	e1c010b0 	strh	r1, [r0]
    974c:	e1c011b0 	strh	r1, [r0, #16]
    9750:	e2822014 	add	r2, r2, #20
    9754:	e5832000 	str	r2, [r3]
    9758:	e8bd001f 	pop	{r0, r1, r2, r3, r4}
    975c:	e1a0f00e 	mov	pc, lr
    9760:	0000b030 	.word	0x0000b030
    9764:	0000b02c 	.word	0x0000b02c
    9768:	0000b034 	.word	0x0000b034
    976c:	0000b028 	.word	0x0000b028
    9770:	0000b038 	.word	0x0000b038

00009774 <print_P>:
    9774:	e92d001f 	push	{r0, r1, r2, r3, r4}
    9778:	e59f3108 	ldr	r3, [pc, #264]	; 9888 <proceed_print_P+0xa4>
    977c:	e5930000 	ldr	r0, [r3]
    9780:	e1a02000 	mov	r2, r0
    9784:	e59f4100 	ldr	r4, [pc, #256]	; 988c <proceed_print_P+0xa8>
    9788:	e5944000 	ldr	r4, [r4]
    978c:	e1500004 	cmp	r0, r4
    9790:	1a000013 	bne	97e4 <proceed_print_P>
    9794:	e2422c0a 	sub	r2, r2, #2560	; 0xa00
    9798:	e92d001f 	push	{r0, r1, r2, r3, r4}
    979c:	e59f00ec 	ldr	r0, [pc, #236]	; 9890 <proceed_print_P+0xac>
    97a0:	e5900000 	ldr	r0, [r0]
    97a4:	e59f30e8 	ldr	r3, [pc, #232]	; 9894 <proceed_print_P+0xb0>
    97a8:	e5933000 	ldr	r3, [r3]
    97ac:	e3a01b19 	mov	r1, #25600	; 0x6400

000097b0 <newline_P_loop>:
    97b0:	e7902001 	ldr	r2, [r0, r1]
    97b4:	e5802000 	str	r2, [r0]
    97b8:	e2800004 	add	r0, r0, #4
    97bc:	e1500003 	cmp	r0, r3
    97c0:	bafffffa 	blt	97b0 <newline_P_loop>
    97c4:	e3a02000 	mov	r2, #0
    97c8:	e59f30c8 	ldr	r3, [pc, #200]	; 9898 <proceed_print_P+0xb4>
    97cc:	e5933000 	ldr	r3, [r3]

000097d0 <make_P_black_loop>:
    97d0:	e5802000 	str	r2, [r0]
    97d4:	e2800004 	add	r0, r0, #4
    97d8:	e1500003 	cmp	r0, r3
    97dc:	bafffffb 	blt	97d0 <make_P_black_loop>
    97e0:	e8bd001f 	pop	{r0, r1, r2, r3, r4}

000097e4 <proceed_print_P>:
    97e4:	e3e014ff 	mvn	r1, #-16777216	; 0xff000000
    97e8:	e1c010b0 	strh	r1, [r0]
    97ec:	e1c010b2 	strh	r1, [r0, #2]
    97f0:	e1c010b4 	strh	r1, [r0, #4]
    97f4:	e1c010b6 	strh	r1, [r0, #6]
    97f8:	e1c010b8 	strh	r1, [r0, #8]
    97fc:	e1c010ba 	strh	r1, [r0, #10]
    9800:	e1c010bc 	strh	r1, [r0, #12]
    9804:	e1c010be 	strh	r1, [r0, #14]
    9808:	e1c011b0 	strh	r1, [r0, #16]
    980c:	e2800c0a 	add	r0, r0, #2560	; 0xa00
    9810:	e1c010b0 	strh	r1, [r0]
    9814:	e1c011b0 	strh	r1, [r0, #16]
    9818:	e2800c0a 	add	r0, r0, #2560	; 0xa00
    981c:	e1c010b0 	strh	r1, [r0]
    9820:	e1c011b0 	strh	r1, [r0, #16]
    9824:	e2800c0a 	add	r0, r0, #2560	; 0xa00
    9828:	e1c010b0 	strh	r1, [r0]
    982c:	e1c011b0 	strh	r1, [r0, #16]
    9830:	e2800c0a 	add	r0, r0, #2560	; 0xa00
    9834:	e1c010b0 	strh	r1, [r0]
    9838:	e1c010b2 	strh	r1, [r0, #2]
    983c:	e1c010b4 	strh	r1, [r0, #4]
    9840:	e1c010b6 	strh	r1, [r0, #6]
    9844:	e1c010b8 	strh	r1, [r0, #8]
    9848:	e1c010ba 	strh	r1, [r0, #10]
    984c:	e1c010bc 	strh	r1, [r0, #12]
    9850:	e1c010be 	strh	r1, [r0, #14]
    9854:	e1c011b0 	strh	r1, [r0, #16]
    9858:	e2800c0a 	add	r0, r0, #2560	; 0xa00
    985c:	e1c010b0 	strh	r1, [r0]
    9860:	e2800c0a 	add	r0, r0, #2560	; 0xa00
    9864:	e1c010b0 	strh	r1, [r0]
    9868:	e2800c0a 	add	r0, r0, #2560	; 0xa00
    986c:	e1c010b0 	strh	r1, [r0]
    9870:	e2800c0a 	add	r0, r0, #2560	; 0xa00
    9874:	e1c010b0 	strh	r1, [r0]
    9878:	e2822014 	add	r2, r2, #20
    987c:	e5832000 	str	r2, [r3]
    9880:	e8bd001f 	pop	{r0, r1, r2, r3, r4}
    9884:	e1a0f00e 	mov	pc, lr
    9888:	0000b030 	.word	0x0000b030
    988c:	0000b02c 	.word	0x0000b02c
    9890:	0000b034 	.word	0x0000b034
    9894:	0000b028 	.word	0x0000b028
    9898:	0000b038 	.word	0x0000b038

0000989c <print_Q>:
    989c:	e92d001f 	push	{r0, r1, r2, r3, r4}
    98a0:	e59f3120 	ldr	r3, [pc, #288]	; 99c8 <proceed_print_Q+0xbc>
    98a4:	e5930000 	ldr	r0, [r3]
    98a8:	e1a02000 	mov	r2, r0
    98ac:	e59f4118 	ldr	r4, [pc, #280]	; 99cc <proceed_print_Q+0xc0>
    98b0:	e5944000 	ldr	r4, [r4]
    98b4:	e1500004 	cmp	r0, r4
    98b8:	1a000013 	bne	990c <proceed_print_Q>
    98bc:	e2422c0a 	sub	r2, r2, #2560	; 0xa00
    98c0:	e92d001f 	push	{r0, r1, r2, r3, r4}
    98c4:	e59f0104 	ldr	r0, [pc, #260]	; 99d0 <proceed_print_Q+0xc4>
    98c8:	e5900000 	ldr	r0, [r0]
    98cc:	e59f3100 	ldr	r3, [pc, #256]	; 99d4 <proceed_print_Q+0xc8>
    98d0:	e5933000 	ldr	r3, [r3]
    98d4:	e3a01b19 	mov	r1, #25600	; 0x6400

000098d8 <newline_Q_loop>:
    98d8:	e7902001 	ldr	r2, [r0, r1]
    98dc:	e5802000 	str	r2, [r0]
    98e0:	e2800004 	add	r0, r0, #4
    98e4:	e1500003 	cmp	r0, r3
    98e8:	bafffffa 	blt	98d8 <newline_Q_loop>
    98ec:	e3a02000 	mov	r2, #0
    98f0:	e59f30e0 	ldr	r3, [pc, #224]	; 99d8 <proceed_print_Q+0xcc>
    98f4:	e5933000 	ldr	r3, [r3]

000098f8 <make_Q_black_loop>:
    98f8:	e5802000 	str	r2, [r0]
    98fc:	e2800004 	add	r0, r0, #4
    9900:	e1500003 	cmp	r0, r3
    9904:	bafffffb 	blt	98f8 <make_Q_black_loop>
    9908:	e8bd001f 	pop	{r0, r1, r2, r3, r4}

0000990c <proceed_print_Q>:
    990c:	e3e014ff 	mvn	r1, #-16777216	; 0xff000000
    9910:	e1c010b0 	strh	r1, [r0]
    9914:	e1c010b2 	strh	r1, [r0, #2]
    9918:	e1c010b4 	strh	r1, [r0, #4]
    991c:	e1c010b6 	strh	r1, [r0, #6]
    9920:	e1c010b8 	strh	r1, [r0, #8]
    9924:	e1c010ba 	strh	r1, [r0, #10]
    9928:	e1c010bc 	strh	r1, [r0, #12]
    992c:	e1c010be 	strh	r1, [r0, #14]
    9930:	e2800c0a 	add	r0, r0, #2560	; 0xa00
    9934:	e1c010b0 	strh	r1, [r0]
    9938:	e1c010be 	strh	r1, [r0, #14]
    993c:	e2800c0a 	add	r0, r0, #2560	; 0xa00
    9940:	e1c010b0 	strh	r1, [r0]
    9944:	e1c010be 	strh	r1, [r0, #14]
    9948:	e2800c0a 	add	r0, r0, #2560	; 0xa00
    994c:	e1c010b0 	strh	r1, [r0]
    9950:	e1c010be 	strh	r1, [r0, #14]
    9954:	e2800c0a 	add	r0, r0, #2560	; 0xa00
    9958:	e1c010b0 	strh	r1, [r0]
    995c:	e1c010be 	strh	r1, [r0, #14]
    9960:	e2800c0a 	add	r0, r0, #2560	; 0xa00
    9964:	e1c010b0 	strh	r1, [r0]
    9968:	e1c010b8 	strh	r1, [r0, #8]
    996c:	e1c010be 	strh	r1, [r0, #14]
    9970:	e2800c0a 	add	r0, r0, #2560	; 0xa00
    9974:	e1c010b0 	strh	r1, [r0]
    9978:	e1c010ba 	strh	r1, [r0, #10]
    997c:	e1c010be 	strh	r1, [r0, #14]
    9980:	e2800c0a 	add	r0, r0, #2560	; 0xa00
    9984:	e1c010b0 	strh	r1, [r0]
    9988:	e1c010bc 	strh	r1, [r0, #12]
    998c:	e1c010be 	strh	r1, [r0, #14]
    9990:	e2800c0a 	add	r0, r0, #2560	; 0xa00
    9994:	e1c010b0 	strh	r1, [r0]
    9998:	e1c010b2 	strh	r1, [r0, #2]
    999c:	e1c010b4 	strh	r1, [r0, #4]
    99a0:	e1c010b6 	strh	r1, [r0, #6]
    99a4:	e1c010b8 	strh	r1, [r0, #8]
    99a8:	e1c010ba 	strh	r1, [r0, #10]
    99ac:	e1c010bc 	strh	r1, [r0, #12]
    99b0:	e1c010be 	strh	r1, [r0, #14]
    99b4:	e1c011b0 	strh	r1, [r0, #16]
    99b8:	e2822014 	add	r2, r2, #20
    99bc:	e5832000 	str	r2, [r3]
    99c0:	e8bd001f 	pop	{r0, r1, r2, r3, r4}
    99c4:	e1a0f00e 	mov	pc, lr
    99c8:	0000b030 	.word	0x0000b030
    99cc:	0000b02c 	.word	0x0000b02c
    99d0:	0000b034 	.word	0x0000b034
    99d4:	0000b028 	.word	0x0000b028
    99d8:	0000b038 	.word	0x0000b038

000099dc <print_R>:
    99dc:	e92d001f 	push	{r0, r1, r2, r3, r4}
    99e0:	e59f3130 	ldr	r3, [pc, #304]	; 9b18 <proceed_print_R+0xcc>
    99e4:	e5930000 	ldr	r0, [r3]
    99e8:	e1a02000 	mov	r2, r0
    99ec:	e59f4128 	ldr	r4, [pc, #296]	; 9b1c <proceed_print_R+0xd0>
    99f0:	e5944000 	ldr	r4, [r4]
    99f4:	e1500004 	cmp	r0, r4
    99f8:	1a000013 	bne	9a4c <proceed_print_R>
    99fc:	e2422c0a 	sub	r2, r2, #2560	; 0xa00
    9a00:	e92d001f 	push	{r0, r1, r2, r3, r4}
    9a04:	e59f0114 	ldr	r0, [pc, #276]	; 9b20 <proceed_print_R+0xd4>
    9a08:	e5900000 	ldr	r0, [r0]
    9a0c:	e59f3110 	ldr	r3, [pc, #272]	; 9b24 <proceed_print_R+0xd8>
    9a10:	e5933000 	ldr	r3, [r3]
    9a14:	e3a01b19 	mov	r1, #25600	; 0x6400

00009a18 <newline_R_loop>:
    9a18:	e7902001 	ldr	r2, [r0, r1]
    9a1c:	e5802000 	str	r2, [r0]
    9a20:	e2800004 	add	r0, r0, #4
    9a24:	e1500003 	cmp	r0, r3
    9a28:	bafffffa 	blt	9a18 <newline_R_loop>
    9a2c:	e3a02000 	mov	r2, #0
    9a30:	e59f30f0 	ldr	r3, [pc, #240]	; 9b28 <proceed_print_R+0xdc>
    9a34:	e5933000 	ldr	r3, [r3]

00009a38 <make_R_black_loop>:
    9a38:	e5802000 	str	r2, [r0]
    9a3c:	e2800004 	add	r0, r0, #4
    9a40:	e1500003 	cmp	r0, r3
    9a44:	bafffffb 	blt	9a38 <make_R_black_loop>
    9a48:	e8bd001f 	pop	{r0, r1, r2, r3, r4}

00009a4c <proceed_print_R>:
    9a4c:	e3e014ff 	mvn	r1, #-16777216	; 0xff000000
    9a50:	e1c010b0 	strh	r1, [r0]
    9a54:	e1c010b2 	strh	r1, [r0, #2]
    9a58:	e1c010b4 	strh	r1, [r0, #4]
    9a5c:	e1c010b6 	strh	r1, [r0, #6]
    9a60:	e1c010b8 	strh	r1, [r0, #8]
    9a64:	e1c010ba 	strh	r1, [r0, #10]
    9a68:	e1c010bc 	strh	r1, [r0, #12]
    9a6c:	e1c010be 	strh	r1, [r0, #14]
    9a70:	e1c011b0 	strh	r1, [r0, #16]
    9a74:	e2800c0a 	add	r0, r0, #2560	; 0xa00
    9a78:	e1c010b0 	strh	r1, [r0]
    9a7c:	e1c011b0 	strh	r1, [r0, #16]
    9a80:	e2800c0a 	add	r0, r0, #2560	; 0xa00
    9a84:	e1c010b0 	strh	r1, [r0]
    9a88:	e1c011b0 	strh	r1, [r0, #16]
    9a8c:	e2800c0a 	add	r0, r0, #2560	; 0xa00
    9a90:	e1c010b0 	strh	r1, [r0]
    9a94:	e1c011b0 	strh	r1, [r0, #16]
    9a98:	e2800c0a 	add	r0, r0, #2560	; 0xa00
    9a9c:	e1c010b0 	strh	r1, [r0]
    9aa0:	e1c010b2 	strh	r1, [r0, #2]
    9aa4:	e1c010b4 	strh	r1, [r0, #4]
    9aa8:	e1c010b6 	strh	r1, [r0, #6]
    9aac:	e1c010b8 	strh	r1, [r0, #8]
    9ab0:	e1c010ba 	strh	r1, [r0, #10]
    9ab4:	e1c010bc 	strh	r1, [r0, #12]
    9ab8:	e1c010be 	strh	r1, [r0, #14]
    9abc:	e1c011b0 	strh	r1, [r0, #16]
    9ac0:	e2800c0a 	add	r0, r0, #2560	; 0xa00
    9ac4:	e1c010b0 	strh	r1, [r0]
    9ac8:	e1c010b2 	strh	r1, [r0, #2]
    9acc:	e2800c0a 	add	r0, r0, #2560	; 0xa00
    9ad0:	e1c010b0 	strh	r1, [r0]
    9ad4:	e1c010b4 	strh	r1, [r0, #4]
    9ad8:	e1c010b6 	strh	r1, [r0, #6]
    9adc:	e1c010b8 	strh	r1, [r0, #8]
    9ae0:	e2800c0a 	add	r0, r0, #2560	; 0xa00
    9ae4:	e1c010b0 	strh	r1, [r0]
    9ae8:	e1c010b8 	strh	r1, [r0, #8]
    9aec:	e1c010ba 	strh	r1, [r0, #10]
    9af0:	e1c010bc 	strh	r1, [r0, #12]
    9af4:	e2800c0a 	add	r0, r0, #2560	; 0xa00
    9af8:	e1c010b0 	strh	r1, [r0]
    9afc:	e1c010bc 	strh	r1, [r0, #12]
    9b00:	e1c010be 	strh	r1, [r0, #14]
    9b04:	e1c011b0 	strh	r1, [r0, #16]
    9b08:	e2822014 	add	r2, r2, #20
    9b0c:	e5832000 	str	r2, [r3]
    9b10:	e8bd001f 	pop	{r0, r1, r2, r3, r4}
    9b14:	e1a0f00e 	mov	pc, lr
    9b18:	0000b030 	.word	0x0000b030
    9b1c:	0000b02c 	.word	0x0000b02c
    9b20:	0000b034 	.word	0x0000b034
    9b24:	0000b028 	.word	0x0000b028
    9b28:	0000b038 	.word	0x0000b038

00009b2c <print_S>:
    9b2c:	e92d001f 	push	{r0, r1, r2, r3, r4}
    9b30:	e59f311c 	ldr	r3, [pc, #284]	; 9c54 <proceed_print_S+0xb8>
    9b34:	e5930000 	ldr	r0, [r3]
    9b38:	e1a02000 	mov	r2, r0
    9b3c:	e59f4114 	ldr	r4, [pc, #276]	; 9c58 <proceed_print_S+0xbc>
    9b40:	e5944000 	ldr	r4, [r4]
    9b44:	e1500004 	cmp	r0, r4
    9b48:	1a000013 	bne	9b9c <proceed_print_S>
    9b4c:	e2422c0a 	sub	r2, r2, #2560	; 0xa00
    9b50:	e92d001f 	push	{r0, r1, r2, r3, r4}
    9b54:	e59f0100 	ldr	r0, [pc, #256]	; 9c5c <proceed_print_S+0xc0>
    9b58:	e5900000 	ldr	r0, [r0]
    9b5c:	e59f30fc 	ldr	r3, [pc, #252]	; 9c60 <proceed_print_S+0xc4>
    9b60:	e5933000 	ldr	r3, [r3]
    9b64:	e3a01b19 	mov	r1, #25600	; 0x6400

00009b68 <newline_S_loop>:
    9b68:	e7902001 	ldr	r2, [r0, r1]
    9b6c:	e5802000 	str	r2, [r0]
    9b70:	e2800004 	add	r0, r0, #4
    9b74:	e1500003 	cmp	r0, r3
    9b78:	bafffffa 	blt	9b68 <newline_S_loop>
    9b7c:	e3a02000 	mov	r2, #0
    9b80:	e59f30dc 	ldr	r3, [pc, #220]	; 9c64 <proceed_print_S+0xc8>
    9b84:	e5933000 	ldr	r3, [r3]

00009b88 <make_S_black_loop>:
    9b88:	e5802000 	str	r2, [r0]
    9b8c:	e2800004 	add	r0, r0, #4
    9b90:	e1500003 	cmp	r0, r3
    9b94:	bafffffb 	blt	9b88 <make_S_black_loop>
    9b98:	e8bd001f 	pop	{r0, r1, r2, r3, r4}

00009b9c <proceed_print_S>:
    9b9c:	e3e014ff 	mvn	r1, #-16777216	; 0xff000000
    9ba0:	e1c010b0 	strh	r1, [r0]
    9ba4:	e1c010b2 	strh	r1, [r0, #2]
    9ba8:	e1c010b4 	strh	r1, [r0, #4]
    9bac:	e1c010b6 	strh	r1, [r0, #6]
    9bb0:	e1c010b8 	strh	r1, [r0, #8]
    9bb4:	e1c010ba 	strh	r1, [r0, #10]
    9bb8:	e1c010bc 	strh	r1, [r0, #12]
    9bbc:	e1c010be 	strh	r1, [r0, #14]
    9bc0:	e1c011b0 	strh	r1, [r0, #16]
    9bc4:	e2800c0a 	add	r0, r0, #2560	; 0xa00
    9bc8:	e1c010b0 	strh	r1, [r0]
    9bcc:	e2800c0a 	add	r0, r0, #2560	; 0xa00
    9bd0:	e1c010b0 	strh	r1, [r0]
    9bd4:	e2800c0a 	add	r0, r0, #2560	; 0xa00
    9bd8:	e1c010b0 	strh	r1, [r0]
    9bdc:	e2800c0a 	add	r0, r0, #2560	; 0xa00
    9be0:	e1c010b0 	strh	r1, [r0]
    9be4:	e1c010b2 	strh	r1, [r0, #2]
    9be8:	e1c010b4 	strh	r1, [r0, #4]
    9bec:	e1c010b6 	strh	r1, [r0, #6]
    9bf0:	e1c010b8 	strh	r1, [r0, #8]
    9bf4:	e1c010ba 	strh	r1, [r0, #10]
    9bf8:	e1c010bc 	strh	r1, [r0, #12]
    9bfc:	e1c010be 	strh	r1, [r0, #14]
    9c00:	e1c011b0 	strh	r1, [r0, #16]
    9c04:	e2800c0a 	add	r0, r0, #2560	; 0xa00
    9c08:	e1c011b0 	strh	r1, [r0, #16]
    9c0c:	e2800c0a 	add	r0, r0, #2560	; 0xa00
    9c10:	e1c011b0 	strh	r1, [r0, #16]
    9c14:	e2800c0a 	add	r0, r0, #2560	; 0xa00
    9c18:	e1c011b0 	strh	r1, [r0, #16]
    9c1c:	e2800c0a 	add	r0, r0, #2560	; 0xa00
    9c20:	e1c010b0 	strh	r1, [r0]
    9c24:	e1c010b2 	strh	r1, [r0, #2]
    9c28:	e1c010b4 	strh	r1, [r0, #4]
    9c2c:	e1c010b6 	strh	r1, [r0, #6]
    9c30:	e1c010b8 	strh	r1, [r0, #8]
    9c34:	e1c010ba 	strh	r1, [r0, #10]
    9c38:	e1c010bc 	strh	r1, [r0, #12]
    9c3c:	e1c010be 	strh	r1, [r0, #14]
    9c40:	e1c011b0 	strh	r1, [r0, #16]
    9c44:	e2822014 	add	r2, r2, #20
    9c48:	e5832000 	str	r2, [r3]
    9c4c:	e8bd001f 	pop	{r0, r1, r2, r3, r4}
    9c50:	e1a0f00e 	mov	pc, lr
    9c54:	0000b030 	.word	0x0000b030
    9c58:	0000b02c 	.word	0x0000b02c
    9c5c:	0000b034 	.word	0x0000b034
    9c60:	0000b028 	.word	0x0000b028
    9c64:	0000b038 	.word	0x0000b038

00009c68 <print_T>:
    9c68:	e92d001f 	push	{r0, r1, r2, r3, r4}
    9c6c:	e59f30e0 	ldr	r3, [pc, #224]	; 9d54 <proceed_print_T+0x7c>
    9c70:	e5930000 	ldr	r0, [r3]
    9c74:	e1a02000 	mov	r2, r0
    9c78:	e59f40d8 	ldr	r4, [pc, #216]	; 9d58 <proceed_print_T+0x80>
    9c7c:	e5944000 	ldr	r4, [r4]
    9c80:	e1500004 	cmp	r0, r4
    9c84:	1a000013 	bne	9cd8 <proceed_print_T>
    9c88:	e2422c0a 	sub	r2, r2, #2560	; 0xa00
    9c8c:	e92d001f 	push	{r0, r1, r2, r3, r4}
    9c90:	e59f00c4 	ldr	r0, [pc, #196]	; 9d5c <proceed_print_T+0x84>
    9c94:	e5900000 	ldr	r0, [r0]
    9c98:	e59f30c0 	ldr	r3, [pc, #192]	; 9d60 <proceed_print_T+0x88>
    9c9c:	e5933000 	ldr	r3, [r3]
    9ca0:	e3a01b19 	mov	r1, #25600	; 0x6400

00009ca4 <newline_T_loop>:
    9ca4:	e7902001 	ldr	r2, [r0, r1]
    9ca8:	e5802000 	str	r2, [r0]
    9cac:	e2800004 	add	r0, r0, #4
    9cb0:	e1500003 	cmp	r0, r3
    9cb4:	bafffffa 	blt	9ca4 <newline_T_loop>
    9cb8:	e3a02000 	mov	r2, #0
    9cbc:	e59f30a0 	ldr	r3, [pc, #160]	; 9d64 <proceed_print_T+0x8c>
    9cc0:	e5933000 	ldr	r3, [r3]

00009cc4 <make_T_black_loop>:
    9cc4:	e5802000 	str	r2, [r0]
    9cc8:	e2800004 	add	r0, r0, #4
    9ccc:	e1500003 	cmp	r0, r3
    9cd0:	bafffffb 	blt	9cc4 <make_T_black_loop>
    9cd4:	e8bd001f 	pop	{r0, r1, r2, r3, r4}

00009cd8 <proceed_print_T>:
    9cd8:	e3e014ff 	mvn	r1, #-16777216	; 0xff000000
    9cdc:	e1c010b0 	strh	r1, [r0]
    9ce0:	e1c010b2 	strh	r1, [r0, #2]
    9ce4:	e1c010b4 	strh	r1, [r0, #4]
    9ce8:	e1c010b6 	strh	r1, [r0, #6]
    9cec:	e1c010b8 	strh	r1, [r0, #8]
    9cf0:	e1c010ba 	strh	r1, [r0, #10]
    9cf4:	e1c010bc 	strh	r1, [r0, #12]
    9cf8:	e1c010be 	strh	r1, [r0, #14]
    9cfc:	e1c011b0 	strh	r1, [r0, #16]
    9d00:	e2800c0a 	add	r0, r0, #2560	; 0xa00
    9d04:	e1c010b8 	strh	r1, [r0, #8]
    9d08:	e2800c0a 	add	r0, r0, #2560	; 0xa00
    9d0c:	e1c010b8 	strh	r1, [r0, #8]
    9d10:	e2800c0a 	add	r0, r0, #2560	; 0xa00
    9d14:	e1c010b8 	strh	r1, [r0, #8]
    9d18:	e2800c0a 	add	r0, r0, #2560	; 0xa00
    9d1c:	e1c010b8 	strh	r1, [r0, #8]
    9d20:	e2800c0a 	add	r0, r0, #2560	; 0xa00
    9d24:	e1c010b8 	strh	r1, [r0, #8]
    9d28:	e2800c0a 	add	r0, r0, #2560	; 0xa00
    9d2c:	e1c010b8 	strh	r1, [r0, #8]
    9d30:	e2800c0a 	add	r0, r0, #2560	; 0xa00
    9d34:	e1c010b8 	strh	r1, [r0, #8]
    9d38:	e2800c0a 	add	r0, r0, #2560	; 0xa00
    9d3c:	e1c010b8 	strh	r1, [r0, #8]
    9d40:	e2822014 	add	r2, r2, #20
    9d44:	e1c010b8 	strh	r1, [r0, #8]
    9d48:	e5832000 	str	r2, [r3]
    9d4c:	e8bd001f 	pop	{r0, r1, r2, r3, r4}
    9d50:	e1a0f00e 	mov	pc, lr
    9d54:	0000b030 	.word	0x0000b030
    9d58:	0000b02c 	.word	0x0000b02c
    9d5c:	0000b034 	.word	0x0000b034
    9d60:	0000b028 	.word	0x0000b028
    9d64:	0000b038 	.word	0x0000b038

00009d68 <print_V>:
    9d68:	e92d001f 	push	{r0, r1, r2, r3, r4}
    9d6c:	e59f30ec 	ldr	r3, [pc, #236]	; 9e60 <proceed_print_V+0x88>
    9d70:	e5930000 	ldr	r0, [r3]
    9d74:	e1a02000 	mov	r2, r0
    9d78:	e59f40e4 	ldr	r4, [pc, #228]	; 9e64 <proceed_print_V+0x8c>
    9d7c:	e5944000 	ldr	r4, [r4]
    9d80:	e1500004 	cmp	r0, r4
    9d84:	1a000013 	bne	9dd8 <proceed_print_V>
    9d88:	e2422c0a 	sub	r2, r2, #2560	; 0xa00
    9d8c:	e92d001f 	push	{r0, r1, r2, r3, r4}
    9d90:	e59f00d0 	ldr	r0, [pc, #208]	; 9e68 <proceed_print_V+0x90>
    9d94:	e5900000 	ldr	r0, [r0]
    9d98:	e59f30cc 	ldr	r3, [pc, #204]	; 9e6c <proceed_print_V+0x94>
    9d9c:	e5933000 	ldr	r3, [r3]
    9da0:	e3a01b19 	mov	r1, #25600	; 0x6400

00009da4 <newline_V_loop>:
    9da4:	e7902001 	ldr	r2, [r0, r1]
    9da8:	e5802000 	str	r2, [r0]
    9dac:	e2800004 	add	r0, r0, #4
    9db0:	e1500003 	cmp	r0, r3
    9db4:	bafffffa 	blt	9da4 <newline_V_loop>
    9db8:	e3a02000 	mov	r2, #0
    9dbc:	e59f30ac 	ldr	r3, [pc, #172]	; 9e70 <proceed_print_V+0x98>
    9dc0:	e5933000 	ldr	r3, [r3]

00009dc4 <make_V_black_loop>:
    9dc4:	e5802000 	str	r2, [r0]
    9dc8:	e2800004 	add	r0, r0, #4
    9dcc:	e1500003 	cmp	r0, r3
    9dd0:	bafffffb 	blt	9dc4 <make_V_black_loop>
    9dd4:	e8bd001f 	pop	{r0, r1, r2, r3, r4}

00009dd8 <proceed_print_V>:
    9dd8:	e3e014ff 	mvn	r1, #-16777216	; 0xff000000
    9ddc:	e1c010b0 	strh	r1, [r0]
    9de0:	e1c011b0 	strh	r1, [r0, #16]
    9de4:	e2800c0a 	add	r0, r0, #2560	; 0xa00
    9de8:	e1c010b2 	strh	r1, [r0, #2]
    9dec:	e1c010be 	strh	r1, [r0, #14]
    9df0:	e2800c0a 	add	r0, r0, #2560	; 0xa00
    9df4:	e1c010b2 	strh	r1, [r0, #2]
    9df8:	e1c010be 	strh	r1, [r0, #14]
    9dfc:	e2800c0a 	add	r0, r0, #2560	; 0xa00
    9e00:	e1c010b2 	strh	r1, [r0, #2]
    9e04:	e1c010b4 	strh	r1, [r0, #4]
    9e08:	e1c010bc 	strh	r1, [r0, #12]
    9e0c:	e1c010be 	strh	r1, [r0, #14]
    9e10:	e2800c0a 	add	r0, r0, #2560	; 0xa00
    9e14:	e1c010b4 	strh	r1, [r0, #4]
    9e18:	e1c010bc 	strh	r1, [r0, #12]
    9e1c:	e2800c0a 	add	r0, r0, #2560	; 0xa00
    9e20:	e1c010b4 	strh	r1, [r0, #4]
    9e24:	e1c010b6 	strh	r1, [r0, #6]
    9e28:	e1c010ba 	strh	r1, [r0, #10]
    9e2c:	e1c010bc 	strh	r1, [r0, #12]
    9e30:	e2800c0a 	add	r0, r0, #2560	; 0xa00
    9e34:	e1c010b6 	strh	r1, [r0, #6]
    9e38:	e1c010ba 	strh	r1, [r0, #10]
    9e3c:	e2800c0a 	add	r0, r0, #2560	; 0xa00
    9e40:	e1c010b6 	strh	r1, [r0, #6]
    9e44:	e1c010ba 	strh	r1, [r0, #10]
    9e48:	e2800c0a 	add	r0, r0, #2560	; 0xa00
    9e4c:	e1c010b8 	strh	r1, [r0, #8]
    9e50:	e2822014 	add	r2, r2, #20
    9e54:	e5832000 	str	r2, [r3]
    9e58:	e8bd001f 	pop	{r0, r1, r2, r3, r4}
    9e5c:	e1a0f00e 	mov	pc, lr
    9e60:	0000b030 	.word	0x0000b030
    9e64:	0000b02c 	.word	0x0000b02c
    9e68:	0000b034 	.word	0x0000b034
    9e6c:	0000b028 	.word	0x0000b028
    9e70:	0000b038 	.word	0x0000b038

00009e74 <print_W>:
    9e74:	e92d001f 	push	{r0, r1, r2, r3, r4}
    9e78:	e59f3108 	ldr	r3, [pc, #264]	; 9f88 <proceed_print_W+0xa4>
    9e7c:	e5930000 	ldr	r0, [r3]
    9e80:	e1a02000 	mov	r2, r0
    9e84:	e59f4100 	ldr	r4, [pc, #256]	; 9f8c <proceed_print_W+0xa8>
    9e88:	e5944000 	ldr	r4, [r4]
    9e8c:	e1500004 	cmp	r0, r4
    9e90:	1a000013 	bne	9ee4 <proceed_print_W>
    9e94:	e2422c0a 	sub	r2, r2, #2560	; 0xa00
    9e98:	e92d001f 	push	{r0, r1, r2, r3, r4}
    9e9c:	e59f00ec 	ldr	r0, [pc, #236]	; 9f90 <proceed_print_W+0xac>
    9ea0:	e5900000 	ldr	r0, [r0]
    9ea4:	e59f30e8 	ldr	r3, [pc, #232]	; 9f94 <proceed_print_W+0xb0>
    9ea8:	e5933000 	ldr	r3, [r3]
    9eac:	e3a01b19 	mov	r1, #25600	; 0x6400

00009eb0 <newline_W_loop>:
    9eb0:	e7902001 	ldr	r2, [r0, r1]
    9eb4:	e5802000 	str	r2, [r0]
    9eb8:	e2800004 	add	r0, r0, #4
    9ebc:	e1500003 	cmp	r0, r3
    9ec0:	bafffffa 	blt	9eb0 <newline_W_loop>
    9ec4:	e3a02000 	mov	r2, #0
    9ec8:	e59f30c8 	ldr	r3, [pc, #200]	; 9f98 <proceed_print_W+0xb4>
    9ecc:	e5933000 	ldr	r3, [r3]

00009ed0 <make_W_black_loop>:
    9ed0:	e5802000 	str	r2, [r0]
    9ed4:	e2800004 	add	r0, r0, #4
    9ed8:	e1500003 	cmp	r0, r3
    9edc:	bafffffb 	blt	9ed0 <make_W_black_loop>
    9ee0:	e8bd001f 	pop	{r0, r1, r2, r3, r4}

00009ee4 <proceed_print_W>:
    9ee4:	e3e014ff 	mvn	r1, #-16777216	; 0xff000000
    9ee8:	e1c010b0 	strh	r1, [r0]
    9eec:	e1c011b0 	strh	r1, [r0, #16]
    9ef0:	e2800c0a 	add	r0, r0, #2560	; 0xa00
    9ef4:	e1c010b0 	strh	r1, [r0]
    9ef8:	e1c010b2 	strh	r1, [r0, #2]
    9efc:	e1c010be 	strh	r1, [r0, #14]
    9f00:	e1c011b0 	strh	r1, [r0, #16]
    9f04:	e2800c0a 	add	r0, r0, #2560	; 0xa00
    9f08:	e1c010b2 	strh	r1, [r0, #2]
    9f0c:	e1c010be 	strh	r1, [r0, #14]
    9f10:	e2800c0a 	add	r0, r0, #2560	; 0xa00
    9f14:	e1c010b2 	strh	r1, [r0, #2]
    9f18:	e1c010be 	strh	r1, [r0, #14]
    9f1c:	e2800c0a 	add	r0, r0, #2560	; 0xa00
    9f20:	e1c010b2 	strh	r1, [r0, #2]
    9f24:	e1c010b8 	strh	r1, [r0, #8]
    9f28:	e1c010be 	strh	r1, [r0, #14]
    9f2c:	e2800c0a 	add	r0, r0, #2560	; 0xa00
    9f30:	e1c010b2 	strh	r1, [r0, #2]
    9f34:	e1c010b4 	strh	r1, [r0, #4]
    9f38:	e1c010b8 	strh	r1, [r0, #8]
    9f3c:	e1c010bc 	strh	r1, [r0, #12]
    9f40:	e1c010be 	strh	r1, [r0, #14]
    9f44:	e2800c0a 	add	r0, r0, #2560	; 0xa00
    9f48:	e1c010b4 	strh	r1, [r0, #4]
    9f4c:	e1c010b8 	strh	r1, [r0, #8]
    9f50:	e1c010bc 	strh	r1, [r0, #12]
    9f54:	e2800c0a 	add	r0, r0, #2560	; 0xa00
    9f58:	e1c010b4 	strh	r1, [r0, #4]
    9f5c:	e1c010b6 	strh	r1, [r0, #6]
    9f60:	e1c010ba 	strh	r1, [r0, #10]
    9f64:	e1c010bc 	strh	r1, [r0, #12]
    9f68:	e2800c0a 	add	r0, r0, #2560	; 0xa00
    9f6c:	e1c010b4 	strh	r1, [r0, #4]
    9f70:	e1c010bc 	strh	r1, [r0, #12]
    9f74:	e2822014 	add	r2, r2, #20
    9f78:	e1c010b8 	strh	r1, [r0, #8]
    9f7c:	e5832000 	str	r2, [r3]
    9f80:	e8bd001f 	pop	{r0, r1, r2, r3, r4}
    9f84:	e1a0f00e 	mov	pc, lr
    9f88:	0000b030 	.word	0x0000b030
    9f8c:	0000b02c 	.word	0x0000b02c
    9f90:	0000b034 	.word	0x0000b034
    9f94:	0000b028 	.word	0x0000b028
    9f98:	0000b038 	.word	0x0000b038

00009f9c <print_X>:
    9f9c:	e92d001f 	push	{r0, r1, r2, r3, r4}
    9fa0:	e59f30dc 	ldr	r3, [pc, #220]	; a084 <proceed_print_X+0x78>
    9fa4:	e5930000 	ldr	r0, [r3]
    9fa8:	e1a02000 	mov	r2, r0
    9fac:	e59f40d4 	ldr	r4, [pc, #212]	; a088 <proceed_print_X+0x7c>
    9fb0:	e5944000 	ldr	r4, [r4]
    9fb4:	e1500004 	cmp	r0, r4
    9fb8:	1a000013 	bne	a00c <proceed_print_X>
    9fbc:	e2422c0a 	sub	r2, r2, #2560	; 0xa00
    9fc0:	e92d001f 	push	{r0, r1, r2, r3, r4}
    9fc4:	e59f00c0 	ldr	r0, [pc, #192]	; a08c <proceed_print_X+0x80>
    9fc8:	e5900000 	ldr	r0, [r0]
    9fcc:	e59f30bc 	ldr	r3, [pc, #188]	; a090 <proceed_print_X+0x84>
    9fd0:	e5933000 	ldr	r3, [r3]
    9fd4:	e3a01b19 	mov	r1, #25600	; 0x6400

00009fd8 <newline_X_loop>:
    9fd8:	e7902001 	ldr	r2, [r0, r1]
    9fdc:	e5802000 	str	r2, [r0]
    9fe0:	e2800004 	add	r0, r0, #4
    9fe4:	e1500003 	cmp	r0, r3
    9fe8:	bafffffa 	blt	9fd8 <newline_X_loop>
    9fec:	e3a02000 	mov	r2, #0
    9ff0:	e59f309c 	ldr	r3, [pc, #156]	; a094 <proceed_print_X+0x88>
    9ff4:	e5933000 	ldr	r3, [r3]

00009ff8 <make_X_black_loop>:
    9ff8:	e5802000 	str	r2, [r0]
    9ffc:	e2800004 	add	r0, r0, #4
    a000:	e1500003 	cmp	r0, r3
    a004:	bafffffb 	blt	9ff8 <make_X_black_loop>
    a008:	e8bd001f 	pop	{r0, r1, r2, r3, r4}

0000a00c <proceed_print_X>:
    a00c:	e3e014ff 	mvn	r1, #-16777216	; 0xff000000
    a010:	e1c010b0 	strh	r1, [r0]
    a014:	e1c011b0 	strh	r1, [r0, #16]
    a018:	e2800c0a 	add	r0, r0, #2560	; 0xa00
    a01c:	e1c010b2 	strh	r1, [r0, #2]
    a020:	e1c010be 	strh	r1, [r0, #14]
    a024:	e2800c0a 	add	r0, r0, #2560	; 0xa00
    a028:	e1c010b4 	strh	r1, [r0, #4]
    a02c:	e1c010bc 	strh	r1, [r0, #12]
    a030:	e2800c0a 	add	r0, r0, #2560	; 0xa00
    a034:	e1c010b6 	strh	r1, [r0, #6]
    a038:	e1c010ba 	strh	r1, [r0, #10]
    a03c:	e2800c0a 	add	r0, r0, #2560	; 0xa00
    a040:	e1c010b8 	strh	r1, [r0, #8]
    a044:	e2800c0a 	add	r0, r0, #2560	; 0xa00
    a048:	e1c010b6 	strh	r1, [r0, #6]
    a04c:	e1c010ba 	strh	r1, [r0, #10]
    a050:	e2800c0a 	add	r0, r0, #2560	; 0xa00
    a054:	e1c010b4 	strh	r1, [r0, #4]
    a058:	e1c010bc 	strh	r1, [r0, #12]
    a05c:	e2800c0a 	add	r0, r0, #2560	; 0xa00
    a060:	e1c010b2 	strh	r1, [r0, #2]
    a064:	e1c010be 	strh	r1, [r0, #14]
    a068:	e2800c0a 	add	r0, r0, #2560	; 0xa00
    a06c:	e1c010b0 	strh	r1, [r0]
    a070:	e1c011b0 	strh	r1, [r0, #16]
    a074:	e2822014 	add	r2, r2, #20
    a078:	e5832000 	str	r2, [r3]
    a07c:	e8bd001f 	pop	{r0, r1, r2, r3, r4}
    a080:	e1a0f00e 	mov	pc, lr
    a084:	0000b030 	.word	0x0000b030
    a088:	0000b02c 	.word	0x0000b02c
    a08c:	0000b034 	.word	0x0000b034
    a090:	0000b028 	.word	0x0000b028
    a094:	0000b038 	.word	0x0000b038

0000a098 <print_Y>:
    a098:	e92d001f 	push	{r0, r1, r2, r3, r4}
    a09c:	e59f30cc 	ldr	r3, [pc, #204]	; a170 <proceed_print_Y+0x68>
    a0a0:	e5930000 	ldr	r0, [r3]
    a0a4:	e1a02000 	mov	r2, r0
    a0a8:	e59f40c4 	ldr	r4, [pc, #196]	; a174 <proceed_print_Y+0x6c>
    a0ac:	e5944000 	ldr	r4, [r4]
    a0b0:	e1500004 	cmp	r0, r4
    a0b4:	1a000013 	bne	a108 <proceed_print_Y>
    a0b8:	e2422c0a 	sub	r2, r2, #2560	; 0xa00
    a0bc:	e92d001f 	push	{r0, r1, r2, r3, r4}
    a0c0:	e59f00b0 	ldr	r0, [pc, #176]	; a178 <proceed_print_Y+0x70>
    a0c4:	e5900000 	ldr	r0, [r0]
    a0c8:	e59f30ac 	ldr	r3, [pc, #172]	; a17c <proceed_print_Y+0x74>
    a0cc:	e5933000 	ldr	r3, [r3]
    a0d0:	e3a01b19 	mov	r1, #25600	; 0x6400

0000a0d4 <newline_Y_loop>:
    a0d4:	e7902001 	ldr	r2, [r0, r1]
    a0d8:	e5802000 	str	r2, [r0]
    a0dc:	e2800004 	add	r0, r0, #4
    a0e0:	e1500003 	cmp	r0, r3
    a0e4:	bafffffa 	blt	a0d4 <newline_Y_loop>
    a0e8:	e3a02000 	mov	r2, #0
    a0ec:	e59f308c 	ldr	r3, [pc, #140]	; a180 <proceed_print_Y+0x78>
    a0f0:	e5933000 	ldr	r3, [r3]

0000a0f4 <make_Y_black_loop>:
    a0f4:	e5802000 	str	r2, [r0]
    a0f8:	e2800004 	add	r0, r0, #4
    a0fc:	e1500003 	cmp	r0, r3
    a100:	bafffffb 	blt	a0f4 <make_Y_black_loop>
    a104:	e8bd001f 	pop	{r0, r1, r2, r3, r4}

0000a108 <proceed_print_Y>:
    a108:	e3e014ff 	mvn	r1, #-16777216	; 0xff000000
    a10c:	e1c010b0 	strh	r1, [r0]
    a110:	e1c011b0 	strh	r1, [r0, #16]
    a114:	e2800c0a 	add	r0, r0, #2560	; 0xa00
    a118:	e1c010b2 	strh	r1, [r0, #2]
    a11c:	e1c010be 	strh	r1, [r0, #14]
    a120:	e2800c0a 	add	r0, r0, #2560	; 0xa00
    a124:	e1c010b4 	strh	r1, [r0, #4]
    a128:	e1c010bc 	strh	r1, [r0, #12]
    a12c:	e2800c0a 	add	r0, r0, #2560	; 0xa00
    a130:	e1c010b6 	strh	r1, [r0, #6]
    a134:	e1c010ba 	strh	r1, [r0, #10]
    a138:	e2800c0a 	add	r0, r0, #2560	; 0xa00
    a13c:	e1c010b8 	strh	r1, [r0, #8]
    a140:	e2800c0a 	add	r0, r0, #2560	; 0xa00
    a144:	e1c010b6 	strh	r1, [r0, #6]
    a148:	e2800c0a 	add	r0, r0, #2560	; 0xa00
    a14c:	e1c010b4 	strh	r1, [r0, #4]
    a150:	e2800c0a 	add	r0, r0, #2560	; 0xa00
    a154:	e1c010b2 	strh	r1, [r0, #2]
    a158:	e2800c0a 	add	r0, r0, #2560	; 0xa00
    a15c:	e1c010b0 	strh	r1, [r0]
    a160:	e2822014 	add	r2, r2, #20
    a164:	e5832000 	str	r2, [r3]
    a168:	e8bd001f 	pop	{r0, r1, r2, r3, r4}
    a16c:	e1a0f00e 	mov	pc, lr
    a170:	0000b030 	.word	0x0000b030
    a174:	0000b02c 	.word	0x0000b02c
    a178:	0000b034 	.word	0x0000b034
    a17c:	0000b028 	.word	0x0000b028
    a180:	0000b038 	.word	0x0000b038

0000a184 <print_stopF>:
    a184:	e92d001f 	push	{r0, r1, r2, r3, r4}
    a188:	e59f30e8 	ldr	r3, [pc, #232]	; a278 <proceed_print_stopF+0x84>
    a18c:	e5930000 	ldr	r0, [r3]
    a190:	e1a02000 	mov	r2, r0
    a194:	e59f40e0 	ldr	r4, [pc, #224]	; a27c <proceed_print_stopF+0x88>
    a198:	e5944000 	ldr	r4, [r4]
    a19c:	e1500004 	cmp	r0, r4
    a1a0:	1a000013 	bne	a1f4 <proceed_print_stopF>
    a1a4:	e2422c0a 	sub	r2, r2, #2560	; 0xa00
    a1a8:	e92d001f 	push	{r0, r1, r2, r3, r4}
    a1ac:	e59f00cc 	ldr	r0, [pc, #204]	; a280 <proceed_print_stopF+0x8c>
    a1b0:	e5900000 	ldr	r0, [r0]
    a1b4:	e59f30c8 	ldr	r3, [pc, #200]	; a284 <proceed_print_stopF+0x90>
    a1b8:	e5933000 	ldr	r3, [r3]
    a1bc:	e3a01b19 	mov	r1, #25600	; 0x6400

0000a1c0 <newline_stopF_loop>:
    a1c0:	e7902001 	ldr	r2, [r0, r1]
    a1c4:	e5802000 	str	r2, [r0]
    a1c8:	e2800004 	add	r0, r0, #4
    a1cc:	e1500003 	cmp	r0, r3
    a1d0:	bafffffa 	blt	a1c0 <newline_stopF_loop>
    a1d4:	e3a02000 	mov	r2, #0
    a1d8:	e59f30a8 	ldr	r3, [pc, #168]	; a288 <proceed_print_stopF+0x94>
    a1dc:	e5933000 	ldr	r3, [r3]

0000a1e0 <make_stopF_black_loop>:
    a1e0:	e5802000 	str	r2, [r0]
    a1e4:	e2800004 	add	r0, r0, #4
    a1e8:	e1500003 	cmp	r0, r3
    a1ec:	bafffffb 	blt	a1e0 <make_stopF_black_loop>
    a1f0:	e8bd001f 	pop	{r0, r1, r2, r3, r4}

0000a1f4 <proceed_print_stopF>:
    a1f4:	e3e014ff 	mvn	r1, #-16777216	; 0xff000000
    a1f8:	e2800c0a 	add	r0, r0, #2560	; 0xa00
    a1fc:	e2800c0a 	add	r0, r0, #2560	; 0xa00
    a200:	e2800c0a 	add	r0, r0, #2560	; 0xa00
    a204:	e1c010b0 	strh	r1, [r0]
    a208:	e1c010b2 	strh	r1, [r0, #2]
    a20c:	e1c010b4 	strh	r1, [r0, #4]
    a210:	e1c010b6 	strh	r1, [r0, #6]
    a214:	e1c010b8 	strh	r1, [r0, #8]
    a218:	e1c010ba 	strh	r1, [r0, #10]
    a21c:	e2800c0a 	add	r0, r0, #2560	; 0xa00
    a220:	e1c010b0 	strh	r1, [r0]
    a224:	e1c010b2 	strh	r1, [r0, #2]
    a228:	e1c010b4 	strh	r1, [r0, #4]
    a22c:	e1c010b6 	strh	r1, [r0, #6]
    a230:	e1c010b8 	strh	r1, [r0, #8]
    a234:	e1c010ba 	strh	r1, [r0, #10]
    a238:	e2800c0a 	add	r0, r0, #2560	; 0xa00
    a23c:	e1c010b0 	strh	r1, [r0]
    a240:	e1c010b2 	strh	r1, [r0, #2]
    a244:	e1c010b4 	strh	r1, [r0, #4]
    a248:	e1c010b6 	strh	r1, [r0, #6]
    a24c:	e1c010b8 	strh	r1, [r0, #8]
    a250:	e1c010ba 	strh	r1, [r0, #10]
    a254:	e2800c0a 	add	r0, r0, #2560	; 0xa00
    a258:	e2800c0a 	add	r0, r0, #2560	; 0xa00
    a25c:	e2800c0a 	add	r0, r0, #2560	; 0xa00
    a260:	e2822014 	add	r2, r2, #20
    a264:	e5832000 	str	r2, [r3]
    a268:	e8bd001f 	pop	{r0, r1, r2, r3, r4}
    a26c:	ebfff966 	bl	880c <print_newline>
    a270:	e2800001 	add	r0, r0, #1
    a274:	eafff790 	b	80bc <find_1F_A>
    a278:	0000b030 	.word	0x0000b030
    a27c:	0000b02c 	.word	0x0000b02c
    a280:	0000b034 	.word	0x0000b034
    a284:	0000b028 	.word	0x0000b028
    a288:	0000b038 	.word	0x0000b038

0000a28c <print_stopR>:
    a28c:	e92d001f 	push	{r0, r1, r2, r3, r4}
    a290:	e59f30e8 	ldr	r3, [pc, #232]	; a380 <proceed_print_stopR+0x84>
    a294:	e5930000 	ldr	r0, [r3]
    a298:	e1a02000 	mov	r2, r0
    a29c:	e59f40e0 	ldr	r4, [pc, #224]	; a384 <proceed_print_stopR+0x88>
    a2a0:	e5944000 	ldr	r4, [r4]
    a2a4:	e1500004 	cmp	r0, r4
    a2a8:	1a000013 	bne	a2fc <proceed_print_stopR>
    a2ac:	e2422c0a 	sub	r2, r2, #2560	; 0xa00
    a2b0:	e92d001f 	push	{r0, r1, r2, r3, r4}
    a2b4:	e59f00cc 	ldr	r0, [pc, #204]	; a388 <proceed_print_stopR+0x8c>
    a2b8:	e5900000 	ldr	r0, [r0]
    a2bc:	e59f30c8 	ldr	r3, [pc, #200]	; a38c <proceed_print_stopR+0x90>
    a2c0:	e5933000 	ldr	r3, [r3]
    a2c4:	e3a01b19 	mov	r1, #25600	; 0x6400

0000a2c8 <newline_stopR_loop>:
    a2c8:	e7902001 	ldr	r2, [r0, r1]
    a2cc:	e5802000 	str	r2, [r0]
    a2d0:	e2800004 	add	r0, r0, #4
    a2d4:	e1500003 	cmp	r0, r3
    a2d8:	bafffffa 	blt	a2c8 <newline_stopR_loop>
    a2dc:	e3a02000 	mov	r2, #0
    a2e0:	e59f30a8 	ldr	r3, [pc, #168]	; a390 <proceed_print_stopR+0x94>
    a2e4:	e5933000 	ldr	r3, [r3]

0000a2e8 <make_stopR_black_loop>:
    a2e8:	e5802000 	str	r2, [r0]
    a2ec:	e2800004 	add	r0, r0, #4
    a2f0:	e1500003 	cmp	r0, r3
    a2f4:	bafffffb 	blt	a2e8 <make_stopR_black_loop>
    a2f8:	e8bd001f 	pop	{r0, r1, r2, r3, r4}

0000a2fc <proceed_print_stopR>:
    a2fc:	e3e014ff 	mvn	r1, #-16777216	; 0xff000000
    a300:	e2800c0a 	add	r0, r0, #2560	; 0xa00
    a304:	e2800c0a 	add	r0, r0, #2560	; 0xa00
    a308:	e2800c0a 	add	r0, r0, #2560	; 0xa00
    a30c:	e1c010b0 	strh	r1, [r0]
    a310:	e1c010b2 	strh	r1, [r0, #2]
    a314:	e1c010b4 	strh	r1, [r0, #4]
    a318:	e1c010b6 	strh	r1, [r0, #6]
    a31c:	e1c010b8 	strh	r1, [r0, #8]
    a320:	e1c010ba 	strh	r1, [r0, #10]
    a324:	e2800c0a 	add	r0, r0, #2560	; 0xa00
    a328:	e1c010b0 	strh	r1, [r0]
    a32c:	e1c010b2 	strh	r1, [r0, #2]
    a330:	e1c010b4 	strh	r1, [r0, #4]
    a334:	e1c010b6 	strh	r1, [r0, #6]
    a338:	e1c010b8 	strh	r1, [r0, #8]
    a33c:	e1c010ba 	strh	r1, [r0, #10]
    a340:	e2800c0a 	add	r0, r0, #2560	; 0xa00
    a344:	e1c010b0 	strh	r1, [r0]
    a348:	e1c010b2 	strh	r1, [r0, #2]
    a34c:	e1c010b4 	strh	r1, [r0, #4]
    a350:	e1c010b6 	strh	r1, [r0, #6]
    a354:	e1c010b8 	strh	r1, [r0, #8]
    a358:	e1c010ba 	strh	r1, [r0, #10]
    a35c:	e2800c0a 	add	r0, r0, #2560	; 0xa00
    a360:	e2800c0a 	add	r0, r0, #2560	; 0xa00
    a364:	e2800c0a 	add	r0, r0, #2560	; 0xa00
    a368:	e2822014 	add	r2, r2, #20
    a36c:	e5832000 	str	r2, [r3]
    a370:	e8bd001f 	pop	{r0, r1, r2, r3, r4}
    a374:	ebfff924 	bl	880c <print_newline>
    a378:	e2400003 	sub	r0, r0, #3
    a37c:	eafff81c 	b	83f4 <find_1R_T>
    a380:	0000b030 	.word	0x0000b030
    a384:	0000b02c 	.word	0x0000b02c
    a388:	0000b034 	.word	0x0000b034
    a38c:	0000b028 	.word	0x0000b028
    a390:	0000b038 	.word	0x0000b038
